(dp0
V
p1
I114
sVTCA_DEF_PARMS
p2
I2361
sVisonum_711
p3
I6362
sVinet_twsk_deschedule
p4
I4572
sVmaster_period
p5
I3637
sVwrite_seq
p6
I4957
sVlock_ptr
p7
I6154
sVsnd_ctl_add
p8
I3684
sVipv6_get_saddr
p9
I2485
sVhave_final
p10
I2901
sVstruct xfs_buf_map *
p11
I3266
sVasn1_check_tlen
p12
I904
sVstruct pmcraid_ioarcb *
p13
I3670
sVstruct usb_gadget *
p14
I3840
sVSNDRV_CTL_ELEM_ACCESS_USER
p15
I3696
sVfc_mx
p16
I3244
sVnfsd4_cache_this_op
p17
I3187
sVdevice_context
p18
I5636
sVs_user_ns
p19
I2463
sVip_options_echo
p20
I2265
sVrx_opt
p21
I3452
sV"nf_ct_dccp: truncated/malformed packet "
p22
I4737
sVrecvd_type
p23
I383
sVusb_fifo *
p24
I1354
sVVCPU_REGS_RDX
p25
I2495
sVFFALIGN
p26
I5722
sVstruct pmcraid_ioasa
p27
I4501
sVsecond
p28
I2018
sVEVP_CIPH_FLAG_TLS1_1_MULTIBLOCK
p29
I224
sVdelayed_status
p30
I4392
sVDMA_BIDIRECTIONAL
p31
I3803
sVactual_fibsize
p32
I3793
sVargp
p33
I1259
sVAVFilterLink *
p34
I5575
sVxchg
p35
I3341
sVEARLY_DATA_CIPHERTEXT_OVERHEAD
p36
I443
sVstruct tipc_sock *
p37
I1868
sVj_list_lock
p38
I5461
sVNF_ACCEPT
p39
I1610
sVtime_before
p40
I5413
sVS_ISDIR
p41
I2428
sVwLength
p42
I3837
sVSSL3_BUFFER_is_initialised
p43
I433
sVk
p44
I777
sVport_num
p45
I2116
sVpage_start_offset
p46
I6170
sVhead_frag
p47
I4623
sVSSL_MAX_SSL_SESSION_ID_LENGTH
p48
I469
sVnum_recs
p49
I382
sVpr_err
p50
I3971
sVioa_cb
p51
I3661
sVnf_ct_helper_log
p52
I4830
sVtipc_sk
p53
I1869
sVtxd
p54
I1711
sVreplace
p55
I1386
sVBIGNUM * *
p56
I781
sVuniq
p57
I2708
sVioctls
p58
I2624
sVconst xfrm_address_t *
p59
I3005
sVipv6_skb_idev
p60
I1889
sVskb_cow_head
p61
I6293
sVGROUP_STOP_PENDING
p62
I1901
sVss_sp
p63
I1435
sVpskb_trim
p64
I3034
sVav_get_bits_per_pixel
p65
I5602
sVfl2
p66
I5483
sVfixed_coef
p67
I5543
sVlocked
p68
I4122
sVupdate_backups
p69
I4409
sVIRDA_DEBUG
p70
I4816
sVtv_nsec
p71
I5361
sVAV_PIX_FMT_PAL8
p72
I5719
sVSSL2_MT_CLIENT_MASTER_KEY
p73
I216
sV"HNP available\u005cn"
p74
I4397
sVis_master
p75
I2619
sVdecrypt_good
p76
I479
sVIP6_INC_STATS_BH
p77
I1887
sVno_video
p78
I5086
sVi_d
p79
I5307
sVstruct sockaddr_ec
p80
I2792
sVnla_len
p81
I2655
sVwant
p82
I94
sVEFBIG
p83
I6596
sVAUN_PORT
p84
I3712
sVnblocks
p85
I3050
sVmem_cgroup_try_charge
p86
I4350
sVHDSPM_statusRegister2
p87
I5051
sVA
p88
I5604
sVext4_error
p89
I4468
sVsession_ctx
p90
I855
sVtls1_process_heartbeat
p91
I967
sVsecurity_socket_getpeersec_stream
p92
I5470
sVXFS_SB_VERSION_HASEXTFLGBIT
p93
I3167
sV0x028c0
p94
I6696
sVtimers
p95
I4184
sVGetByteContext *
p96
I5734
sVconstant_time_select_8
p97
I478
sVi_mtime
p98
I6327
sVx400Address
p99
I966
sVrb_link_node
p100
I2563
sVBN_set_bit
p101
I805
sVstruct media_entity_desc __user *
p102
I2670
sV_pmcraid_fire_command
p103
I4510
sVTRUE
p104
I4539
sVpid_ns
p105
I1898
sVTASK_KILLABLE
p106
I4788
sVprocessed_rcds
p107
I814
sVuuid
p108
I2927
sVsk_reuseport
p109
I3350
sVSSL3_RT_ALERT
p110
I408
sVSSL_AD_REASON_OFFSET
p111
I862
sVpmcraid_release_passthrough_ioadls
p112
I4493
sVsk_SSL_CIPHER_delete
p113
I582
sVstruct sockaddr_in6 *
p114
I5499
sVproc_create_net_single
p115
I2114
sVssl2_read
p116
I42
sVIP_VS_SO_GET_DAEMON
p117
I3415
sVtimeout
p118
I1377
sVdebug
p119
I2062
sVcookie_in_always
p120
I3450
sV"PUT "
p121
I369
sVin_dev
p122
I6404
sVSHMEM_MAX_INDEX
p123
I1187
sVrt
p124
I1775
sVlen_id
p125
I6354
sVrv
p126
I686
sVgsc_readb
p127
I5031
sVrp
p128
I782
sVrq
p129
I1221
sVrr
p130
I379
sVrs
p131
I5142
sVdst
p132
I842
sVrx
p133
I5229
sVuint32_t *
p134
I5642
sVtcf_tm
p135
I4848
sVsmi
p136
I4880
sVrc
p137
I1154
sVcmsg_flags
p138
I5196
sVAVFormatContext *
p139
I5651
sVdsa
p140
I752
sVopencl_errstr
p141
I3604
sVfragoff
p142
I524
sVnfsd4_decode_remove
p143
I1271
sVkey_arg_length
p144
I205
sVHDSPM_TX_64ch
p145
I5078
sVtexdsp
p146
I5770
sVxfs_ifork_t
p147
I5301
sVsb_imax_pct
p148
I2914
sVmd5
p149
I643
sVconsume_skb
p150
I4610
sVtty_driver_kref_put
p151
I5136
sVSSL_is_init_finished
p152
I415
sVSSL3_RECORD_get_type
p153
I385
sVconst struct drm_ioctl_desc *
p154
I5990
sVsignal_wake_up_state
p155
I4782
sVIS_SETLKW
p156
I6553
sVav_packet_free_side_data
p157
I3577
sVchannels
p158
I5825
sVPTRACE_SEIZE_DEVEL
p159
I1914
sVib_uverbs_cq_idr
p160
I5029
sVotg_caps
p161
I3873
sVFB_VBLANK_HAVE_COUNT
p162
I1941
sVexit_state
p163
I1125
sVSSL_ST_ERR
p164
I713
sVmaster
p165
I1591
sVmax_contents_bytes
p166
I1158
sVstruct dx_entry *
p167
I4461
sVtb_id_in
p168
I1645
sVpte_lockptr
p169
I4338
sVlisten
p170
I925
sVIPERM_FLAG_RCU
p171
I2432
sV__skb_put
p172
I1997
sVvideo_device
p173
I5634
sVavio_flush
p174
I5650
sVpeer_addr
p175
I1757
sVcontext_ref
p176
I5570
sVopen_related_ns
p177
I6436
sVIPSTATS_MIB_INTRUNCATEDPKTS
p178
I1888
sVTLS1_1_VERSION_MINOR
p179
I324
sVsock_flag
p180
I1788
sVEXT4_HAS_COMPAT_FEATURE
p181
I4428
sVBN_copy
p182
I733
sVhas_sack
p183
I1254
sVKVMTRACE_2D
p184
I2050
sVsg_table
p185
I2438
sVget_pi_state
p186
I5984
sVentrytable
p187
I6030
sVmpeg_enc_ctx
p188
I5697
sV__u8
p189
I2332
sVDR_READ
p190
I2051
sVBIO_read
p191
I91
sVb_file_offset
p192
I2595
sVSSL_aSRP
p193
I726
sVdst_get_neighbour
p194
I2189
sVcall_new
p195
I3558
sVlast_cpu
p196
I4630
sVmetrics
p197
I3246
sVxb_busy_locked
p198
I5219
sVSetPageSwapBacked
p199
I1956
sVpqueue_peek
p200
I316
sVdummy
p201
I4622
sVstruct f2fs_nm_info *
p202
I4528
sVeisa_eeprom_addr
p203
I5034
sVsa_family
p204
I3307
sVclientCanCacheRead
p205
I4568
sVwait_for_completion_timeout
p206
I4505
sVprio
p207
I576
sVmax_bssid
p208
I5966
sV"aborting cmd %d (CDB[0] = %x) due to timeout\u005cn"
p209
I4503
sVpci_map_single
p210
I3776
sVsense_response_buf
p211
I3965
sVpriv
p212
I2688
sVisatap_chksrc
p213
I4056
sVqdisc_dev
p214
I1097
sVrskq_defer_accept
p215
I5264
sVSSL3_RECORD_sub_length
p216
I427
sVoverride_uid
p217
I6222
sVSSL_MODE_RELEASE_BUFFERS
p218
I253
sVext4_free_inodes_set
p219
I1490
sVtsflags
p220
I2038
sVvcount
p221
I1936
sVsnd_BUG_ON
p222
I1445
sVaddrs
p223
I4794
sVVM_FAULT_MAJOR
p224
I4198
sVtask_set_jobctl_pending
p225
I4784
sVhdspm_mixer_t
p226
I5392
sVautosync_source
p227
I3640
sVavpriv_request_sample
p228
I5928
sVSSL_MODE_ENABLE_PARTIAL_WRITE
p229
I228
sVext4_r_blocks_count_set
p230
I4412
sVArrayIndexing
p231
I46
sVSSL2_MAX_CHALLENGE_LENGTH
p232
I55
sVpacklen
p233
I235
sVStatement
p234
I684
sV__TASK_STOPPED
p235
I4783
sV__pipe_unlock
p236
I1762
sVCAP_NET_ADMIN
p237
I1721
sVpads
p238
I2680
sVl2n3
p239
I356
sVresult
p240
I828
sVnmsrs
p241
I6538
sVxfs_buf_rele
p242
I2598
sV"length: %u != %u\u005cn"
p243
I6006
sVsas_ss_size
p244
I2314
sVlookup_swap_cache
p245
I1211
sVapp_verify_cookie_cb
p246
I506
sVirq
p247
I1715
sV"%s: bad frame length (%d)\u005cn"
p248
I6094
sVfasync
p249
I5283
sVxoff
p250
I4315
sVMSG_ERRQUEUE
p251
I1557
sV"CONNECT"
p252
I370
sVatomic_read
p253
I4551
sVia5
p254
I837
sVextent
p255
I6375
sVcur
p256
I6107
sVstruct fib_table *
p257
I1629
sVcred_uid
p258
I4482
sVsecType
p259
I3732
sVDRM_MODE_FB_DIRTY_ANNOTATE_COPY
p260
I3068
sVtcp_update_rtt_min
p261
I5145
sVcmd_timeout
p262
I3663
sVIVTV_REG_DEC_LINE_FIELD
p263
I6666
sVclear_inode
p264
I2364
sVsymlink_len
p265
I6316
sVPAGE_SHIFT
p266
I4118
sVYAM_PERSIST
p267
I6639
sVBT_CONNECT2
p268
I1864
sVscsi_status
p269
I3928
sVstruct hdspm_config_info
p270
I2421
sVSOCK_RXQ_OVFL
p271
I3347
sVinode
p272
I1189
sV255
p273
I509
sVBN_RAND_BOTTOM_ANY
p274
I922
sVsource
p275
I4324
sVto_defact
p276
I4860
sVimage_offset_x
p277
I5776
sVfrn
p278
I1631
sVASN1_TYPE *
p279
I1032
sVi_atime
p280
I6326
sVstruct fib_result
p281
I1642
sVlife
p282
I6557
sVMKTAG
p283
I5736
sVstruct shm_info
p284
I4879
sVj_committing_transaction
p285
I1656
sVBN_rand_range
p286
I802
sVsecurity_vm_enough_memory
p287
I6530
sVUD_VECTOR
p288
I4913
sVTCA_DEF_TM
p289
I4851
sVjournal_grab_journal_head
p290
I6492
sVis_high_latency
p291
I6581
sVuverbs_output_written
p292
I4705
sV0x0210
p293
I3888
sVTCP_COOKIE_IN_ALWAYS
p294
I3451
sVSSL_kECDHE
p295
I731
sVaun_queue
p296
I3130
sVbd_disk
p297
I1241
sVEVP_VerifyUpdate
p298
I637
sVOP_ACCESS
p299
I1337
sVintra_scantable
p300
I5687
sVdefault_nid
p301
I588
sVSSL *
p302
I4
sVstrreset_chunk
p303
I6442
sVTCP_TS_HZ
p304
I5156
sVPSK_MAX_IDENTITY_LEN
p305
I889
sVINT_MAX
p306
I76
sVminimum_to_wake
p307
I5288
sVmodeset
p308
I3256
sVbpf_jit_build_epilogue
p309
I4810
sVstruct udp_sock *
p310
I4888
sVNLA_PUT_STRING
p311
I4115
sVEVP_PKEY_bits
p312
I711
sVl3mdev_get_saddr
p313
I2047
sVget_file
p314
I4597
sVstruct ext4_dir_entry_2 *
p315
I4012
sVExpressionStatement
p316
I10
sV"pid=%d, dev=0x%lx, auth=%d, %s\u005cn"
p317
I5995
sVfind_lock_page
p318
I1186
sVskb_tnl_header_len
p319
I4627
sVAV_LOG_VERBOSE
p320
I5758
sV"enabled"
p321
I4086
sVfrags
p322
I1363
sVisofs_i
p323
I6324
sVdoapr_outch
p324
I603
sVpage_cache_release
p325
I1202
sV_kctl
p326
I3903
sVfile_priv
p327
I1368
sVu8 *
p328
I1399
sVScsi_Ioctl_Command __user *
p329
I1217
sVsmeSessionId
p330
I6585
sVxfs_sb_version_hasalign
p331
I2954
sVhidp_hid_driver
p332
I2719
sVTCP_LISTEN
p333
I3355
sVatm_return
p334
I4300
sVDRIVER_IOCTL_COUNT
p335
I6547
sVtcp_send_window_probe
p336
I4993
sVinet_sk_flowi_flags
p337
I3756
sVnlmsg_put
p338
I1931
sVSSL_AD_MISSING_SRP_USERNAME
p339
I420
sVsk_can_gso
p340
I6452
sVcomp_expr_str
p341
I5593
sVmlog_exit
p342
I4204
sVctrl_lock
p343
I5294
sVPICT_FRAME
p344
I5704
sVJpeg2000DecoderContext *
p345
I5780
sVrtsectsize
p346
I2935
sVID3D11VideoDevice_Release
p347
I5633
sVhb_waiters_inc
p348
I5981
sVSCTP_EVENT_ICMP_PROTO_UNREACH
p349
I3281
sVdisconnect_indication
p350
I3388
sVle16_to_cpu
p351
I1462
sVdst_get_neighbour_noref
p352
I2190
sVSSL_ST_READ_BODY
p353
I929
sV~TCP_NAGLE_CORK
p354
I4940
sVCTL_ADD_EXCLUSIVE
p355
I3705
sVwidth
p356
I3490
sVENOTCONN
p357
I6657
sVossl_statem_set_hello_verify_done
p358
I979
sVdi_mode
p359
I5341
sVENETUNREACH
p360
I2198
sVrefcount
p361
I2516
sVAVMEDIA_TYPE_SUBTITLE
p362
I5856
sVBUFSIZ
p363
I2877
sVjournal_put_journal_head
p364
I6493
sVflex_group_count
p365
I2778
sVsk_priority
p366
I3348
sVTIOCGICOUNT
p367
I6571
sVpriv_flags
p368
I4055
sVbalance_dirty_pages_ratelimited
p369
I4219
sVstruct kvm_cpuid2
p370
I6598
sVcoeff
p371
I5517
sVEC_GROUP_get_degree
p372
I697
sVfps_30
p373
I5102
sVdata_xfer_length
p374
I3927
sVvblank_disable_allowed
p375
I4295
sVread_lock
p376
I6397
sVSSL3_ALIGN_PAYLOAD
p377
I183
sVstruct ec_addr
p378
I3710
sVunion sctp_addr_param *
p379
I4712
sVstruct in_device *
p380
I6123
sVadd_to_page_cache_lru
p381
I1181
sVsizeof
p382
I248
sVxfrm_address_t *
p383
I3000
sVdest_len
p384
I401
sVdown_write
p385
I4708
sVgdb_num
p386
I1481
sVinit_extra
p387
I945
sVbcm_proc_read
p388
I2098
sVBN_priv_rand
p389
I975
sVpackets
p390
I6272
sVSNDRV_CTL_ELEM_ACCESS_INACTIVE
p391
I3699
sVtime
p392
I6340
sVpush
p393
I1372
sVwait_on_bit
p394
I4775
sVchain
p395
I2816
sVget_pipe_info
p396
I1758
sVoss
p397
I2308
sVgw_addr
p398
I3241
sVprogressive_frame
p399
I5698
sVYAM_MAXBAUDRATE
p400
I6635
sVLINUX_MIB_TIMEWAITRECYCLED
p401
I2294
sV"entry"
p402
I5460
sVSSL_USE_EXPLICIT_IV
p403
I191
sVCifsNeedReconnect
p404
I4546
sVcookie_values
p405
I3448
sVrgba_map
p406
I5605
sVstruct rate_sample *
p407
I5141
sVrecord_pqueue *
p408
I607
sVbi_flags
p409
I6411
sVskb_queue_splice_init
p410
I4312
sVfree_pi_state
p411
I6156
sVkvm_get_dr
p412
I4644
sVstruct ip_vs_getinfo
p413
I6694
sVstruct fb_info *
p414
I1945
sVnfs_server_capable
p415
I5429
sVCIFS_MOUNT_SET_UID
p416
I6202
sVp_pptr
p417
I5472
sViput
p418
I4408
sVXFS_I
p419
I5039
sVcurve_nid
p420
I720
sVgeneric_file_splice_write_nolock
p421
I4613
sVmm_count
p422
I5012
sVuc_index
p423
I2034
sVb_bdev
p424
I3257
sVIFF_DETACH_QUEUE
p425
I3735
sVpqueue_find
p426
I464
sVsctp_in_scope
p427
I4716
sVocfs2_splice_to_file
p428
I1917
sVLabel
p429
I1348
sVclosePend
p430
I4540
sVPAGE_SIZE
p431
I1238
sVnfsd4_decode_create
p432
I1293
sVFMT_MPEG1
p433
I5702
sVAV_LOG_FATAL
p434
I5511
sVrecvmsg_inq
p435
I4975
sVrt_dst
p436
I1785
sVcurrent
p437
I1107
sVoutqueue
p438
I4180
sVENOPROTOOPT
p439
I6656
sVip_append_data
p440
I1772
sV~TUN_PERSIST
p441
I3309
sVstruct sockaddr_tipc *
p442
I1513
sVautosync_ref
p443
I2143
sVaddress
p444
I1388
sVwait_for_completion
p445
I4495
sVcl_int
p446
I3606
sVfind_next_bit
p447
I2248
sVtw_v6_daddr
p448
I2534
sVOPENSSL_malloc
p449
I260
sVchecksum
p450
I6528
sVread_reg
p451
I6665
sVtbdp
p452
I5330
sVconst AVPixFmtDescriptor *
p453
I5581
sVqueue
p454
I608
sVstrln
p455
I72
sVrequest_queue_t *
p456
I1226
sVfatal_alert
p457
I844
sVipc
p458
I1777
sVxfs_bstat_t *
p459
I5379
sVREAD
p460
I1230
sViph
p461
I1527
sVGSO_BY_FRAGS
p462
I4624
sVadd_cmd_params
p463
I3655
sVcont_size
p464
I6373
sVRSMBLY_BITMASK_MARK
p465
I884
sVudplite_getfrag
p466
I1811
sVIFF_VNET_HDR
p467
I4080
sVSK_NO_REUSE
p468
I4991
sVlist_del
p469
I4159
sVreuse_message
p470
I654
sVstruct dx_frame [ EXT4_HTREE_LEVEL ]
p471
I4024
sVstruct snd_kcontrol
p472
I3910
sVgot_frame
p473
I5741
sVskb_reserve
p474
I1994
sVscope
p475
I1638
sVtls1_ec_curve_id2nid
p476
I723
sVu32 __user *
p477
I2552
sVip6
p478
I5181
sVip4
p479
I2022
sVsrcu
p480
I5259
sVmatchoff
p481
I1598
sVxfs_sb_version_hasdirv2
p482
I2962
sVsk_state
p483
I1510
sVint16_t *
p484
I3517
sVlogsectsize
p485
I2939
sVBBSIZE
p486
I2940
sVPIDTYPE_PGID
p487
I6705
sVvsub
p488
I5610
sVmac_size
p489
I152
sVi_gid
p490
I6329
sVdetached
p491
I3740
sVvfree
p492
I6129
sVu_int8_t
p493
I1833
sVBN_mod_inverse
p494
I797
sV"%p"
p495
I2401
sVreqs
p496
I4680
sVlockt
p497
I1274
sVlocku
p498
I1265
sV235
p499
I6512
sVskb_list
p500
I6098
sVs3
p501
I137
sVs2
p502
I28
sVs1
p503
I5679
sVfpu
p504
I4629
sVnumqueues
p505
I6429
sVSSL_PKEY_ECC
p506
I705
sVdtls1_reassemble_fragment
p507
I564
sVparameter
p508
I3814
sVirda_flow_indication
p509
I3382
sVremap
p510
I6223
sVASN1_const_CTX
p511
I121
sVrt6i_expires
p512
I3196
sVICMPV6_UNK_NEXTHDR
p513
I2891
sVioctl
p514
I1347
sVwr_id
p515
I2118
sVdata
p516
I23
sVEINVAL
p517
I1160
sVsx
p518
I5342
sVunsigned char [ 13 ]
p519
I263
sVss
p520
I5049
sVsp
p521
I1439
sVtcp_fastopen_reset_cipher
p522
I4969
sVst
p523
I5655
sVsk
p524
I822
sVsi
p525
I5240
sVsl
p526
I2120
sVsb
p527
I1449
sVsa
p528
I4717
sVsg
p529
I1998
sVsd
p530
I1918
sVtty
p531
I2251
sVsplice_from_pipe_end
p532
I4222
sVremaining_delay
p533
I5822
sVget_status
p534
I4390
sVmsgtype
p535
I528
sVttl
p536
I2037
sVSSL_F_GET_CLIENT_MASTER_KEY
p537
I208
sVstruct cmtp_session *
p538
I2741
sVEXT4_DESC_PER_BLOCK
p539
I4449
sVstruct b43legacy_dmadesc_meta *
p540
I2776
sVdst_confirm
p541
I4897
sVval64
p542
I3365
sVip6_frag_reasm
p543
I5120
sVfrom_addr_param
p544
I1746
sVi_mapping
p545
I1198
sVDR7_VOLATILE
p546
I4915
sVJpeg2000Tile *
p547
I5771
sVchange_cipher_spec
p548
I413
sVstruct serial_icounter_struct
p549
I6680
sVdev_hold
p550
I6135
sVCAPI_MANUFACTURER_LEN
p551
I2747
sVsysctl_tcp_fastopen
p552
I4971
sVq_bits
p553
I804
sVdrm_file_t *
p554
I6160
sVstruct journal_head *
p555
I1661
sVicsk_user_timeout
p556
I4931
sVext4_free_group_clusters_set
p557
I1492
sVFAULT_FLAG_WRITE
p558
I2077
sVSSL_AD_INTERNAL_ERROR
p559
I876
sVstruct sock *
p560
I1506
sVsecurity_vm_enough_memory_mm
p561
I4126
sVskb_queue_empty
p562
I1820
sVsess_cert
p563
I632
sVcookie_life
p564
I4724
sVsin_zero
p565
I1570
sVplen
p566
I187
sVipv6_hdr
p567
I1408
sVerrno
p568
I2506
sVxfs_buf_trylock
p569
I2599
sVavio_rb16
p570
I5923
sVYbuf
p571
I5830
sV0x7f
p572
I358
sVnamep
p573
I6399
sV(( struct sock * sk , struct sk_buff * skb ) void) *
p574
I3055
sVopen
p575
I1285
sVSSL3_RECORD_is_read
p576
I431
sVfrag_kfree_skb
p577
I6288
sV2
p578
I104
sVIP_VS_STATE_MASTER
p579
I3404
sVdst_confirm_neigh
p580
I3762
sVbits
p581
I4685
sVstruct async_struct
p582
I4865
sVcall_ref
p583
I3566
sVipv6_addr_v4mapped
p584
I5114
sVBN_set_flags
p585
I1055
sVskb_trim
p586
I2235
sVST_OK
p587
I3931
sVssl_get_prev_session
p588
I573
sVsetattr
p589
I1296
sVip_options_rcv_srr
p590
I6407
sVstruct sockaddr_in
p591
I3715
sVstruct sndrv_hdspm_peak_rms_ioctl
p592
I6684
sVpeer_hmacs
p593
I4170
sVcblk
p594
I5809
sVsb_inodesize
p595
I2916
sVsax
p596
I1500
sVstruct task_struct *
p597
I1098
sVpage2
p598
I6142
sVpage1
p599
I6141
sVaddr_len
p600
I1566
sVstruct hid_device *
p601
I2722
sVfrag_list
p602
I1969
sVATM_VF_IS_CLIP
p603
I4309
sVicmph
p604
I6527
sVconfig_desc
p605
I3884
sVsigandhash
p606
I594
sVi_pipe
p607
I2171
sVmay_attach
p608
I1135
sVmsg_flags
p609
I1503
sVIdentifierDecl
p610
I64
sVbuffer
p611
I84
sVcompress
p612
I145
sVtcp_cleanup_rbuf
p613
I4983
sVpages
p614
I2796
sVpagep
p615
I1174
sVerr_recognition
p616
I3532
sVVBLK_SIZE_HEAD
p617
I3189
sVBIO_clear_retry_flags
p618
I857
sVdata_transfer_length
p619
I1547
sVspin_lock_irq
p620
I5100
sVpMac
p621
I5968
sVstruct request *
p622
I1239
sVsystem_clock_mode
p623
I2147
sVslot
p624
I1706
sVbnep_get_connlist
p625
I6652
sVtls12_check_peer_sigalg
p626
I687
sVclear_buffer_jbddirty
p627
I5454
sVrle_buffer_size
p628
I3590
sVcreate_empty_fragment
p629
I134
sVconst uint8_t *
p630
I3578
sVrx_packets
p631
I4052
sVRR_REGARD_XA
p632
I6592
sVoutlen
p633
I756
sVnetif_rx
p634
I4045
sVmay_expand_vm
p635
I4121
sVstruct snd_kcontrol_volatile
p636
I4238
sVstruct drm_clip_rect *
p637
I3077
sVF_GETLK
p638
I4655
sV~__GFP_HIGHMEM
p639
I1951
sVmov_write_vmhd_tag
p640
I5868
sVup
p641
I1771
sVa_hnp_support
p642
I4387
sVchar [ 128 ]
p643
I2630
sVMultiplicativeExpression
p644
I105
sVnfs_inc_stats
p645
I5432
sVmsg_control
p646
I2323
sVclear_bit
p647
I2905
sVECHILD
p648
I5421
sVstruct dst_entry * *
p649
I2184
sVNLMSG_LENGTH
p650
I2548
sVget_vlc2
p651
I3534
sVEXT4_RESIZE_INO
p652
I4453
sVvector_fmul
p653
I5884
sVDTLS1_VERSION_MAJOR
p654
I544
sVmanu
p655
I2732
sVwake_up_all
p656
I6152
sVbuffered_messages
p657
I317
sVdrv_size
p658
I2623
sVs
p659
I3
sVformat_invalid
p660
I5087
sVcksum_sub
p661
I3115
sVMAX_USERNAME_SIZE
p662
I4480
sVconst struct inet6_timewait_sock *
p663
I2536
sVRSA_SSLV23_PADDING
p664
I485
sVmsgseq
p665
I530
sVAV_EF_BITSTREAM
p666
I3533
sVS_IWUSR
p667
I5326
sVbufsize
p668
I5840
sVneeded_tailroom
p669
I6138
sVstruct user_aac_srb
p670
I3025
sVaac_fib_complete
p671
I6285
sVHDSPM_RX_64ch
p672
I3626
sVCL_MAP_WRITE
p673
I3596
sVconst struct inet6_protocol *
p674
I2899
sV__ip_vs_get_timeouts
p675
I3414
sVtsn_map
p676
I4172
sVhandle_led
p677
I4261
sV__u32 *
p678
I2530
sVparse_monolithic_mount_data
p679
I2473
sVcdb_size
p680
I3809
sVnb_null
p681
I5522
sVTLS1_PRF
p682
I623
sVvalidate_element_member_dimension
p683
I3672
sVget_buffer2
p684
I3487
sVctrl
p685
I2725
sVInterlaceContext
p686
I3574
sVDTLS1_HM_HEADER_LENGTH
p687
I311
sVASSERT
p688
I2587
sV__GFP_RECLAIM
p689
I3171
sVBN_is_zero
p690
I724
sVAVCodecContext *
p691
I3479
sVcopy_from_user
p692
I1219
sVdata_dir
p693
I3777
sVbase_addr
p694
I4693
sVvideo_offsets
p695
I5661
sVvm_pgoff
p696
I4119
sVtask_ns_capable
p697
I1899
sVUnaryOperator
p698
I45
sVIS_SETLK
p699
I4656
sVnetif_index_is_l3_master
p700
I2046
sVnull_mapped
p701
I6414
sVbaudrate
p702
I1713
sVread_hash
p703
I933
sVs_dirt
p704
I4443
sVcodec_tag
p705
I5915
sVirttp_open_tsap
p706
I2335
sVrt_type
p707
I3285
sVgid_valid
p708
I3744
sV"DMA RX: Dropping poisoned buffer.\u005cn"
p709
I6118
sVgdp
p710
I1450
sVrice_count_exact
p711
I5900
sVnostrictsync
p712
I6217
sVipv6_chk_addr
p713
I6466
sVresp
p714
I1729
sVMSG_PEEK
p715
I2866
sVSEND_SIG_PRIV
p716
I4789
sVcmpval
p717
I2551
sVsndbuf
p718
I4072
sVmxc
p719
I3142
sV"disabled"
p720
I4087
sVJ_ASSERT_BH
p721
I5452
sVidxtab
p722
I5622
sVsk_max_pacing_rate
p723
I3361
sVmem_cgroup_charge
p724
I2074
sVpitem_new
p725
I560
sVnewaddr
p726
I1602
sVIRDA_MAX_HEADER
p727
I6175
sViovec_gap_to_prv
p728
I6415
sVext4_bg_has_super
p729
I1463
sVput_pi_state
p730
I5983
sVcontext_refcount
p731
I5574
sVJpeg2000Component *
p732
I5779
sV__sk_add_node
p733
I4590
sVskb_copy_datagram_iovec
p734
I1559
sVjbd_lock_bh_state
p735
I5457
sVEXT4_FEATURE_RO_COMPAT_METADATA_CSUM
p736
I4037
sVstruct vcpu_svm *
p737
I2486
sVcifsFileInfo_put
p738
I4116
sVspin_unlock_irqrestore
p739
I4291
sVpfn_pte
p740
I4361
sVTCP_TIME_WAIT
p741
I5200
sVhid_allocate_device
p742
I2713
sVtvp
p743
I5354
sVocfs2_prepare_inode_for_write
p744
I4614
sVnum_spliced
p745
I4225
sVdrm_is_render_client
p746
I2634
sVkref_init
p747
I4922
sVext4_free_blks_set
p748
I1489
sVconst struct b43legacy_dma_ops *
p749
I6082
sVstruct nlattr *
p750
I6479
sVtilf_fields
p751
I5321
sVb43legacy_handle_hwtxstatus
p752
I6079
sVinfile
p753
I5652
sVPageUptodate
p754
I1200
sVsync_madi
p755
I3634
sVjiffies
p756
I1879
sVKERN_ERR
p757
I4807
sVstruct usb_configuration *
p758
I3881
sVmnt_file_mode
p759
I6212
sVicmp_xmit_lock
p760
I2263
sVstruct kvm_pit *
p761
I2229
sVuaddr2
p762
I2553
sVSSL_aFZA
p763
I676
sVstruct sock_fprog
p764
I6594
sVPtrMemberAccess
p765
I7
sVrle_data_len
p766
I3580
sVIdentifierDeclStatement
p767
I63
sVint __user *
p768
I1852
sVHDSPM_MADI_PLAYBACK_RMS_H
p769
I5061
sVimage
p770
I4797
sVHDSPM_MADI_PLAYBACK_RMS_L
p771
I5060
sV"%02X%c"
p772
I940
sVgroup_stop
p773
I1900
sVrefsync
p774
I5563
sViocb
p775
I1565
sVi_blocks
p776
I1191
sV110069313433624UL
p777
I6679
sVcomplete
p778
I3863
sVorig_start
p779
I2860
sVbe32_to_cpu
p780
I5255
sVXBF_MAPPED
p781
I2584
sVIP6SKB_JUMBOGRAM
p782
I4762
sVBUFFER_INC
p783
I809
sV__attach_vcache
p784
I6146
sVdirty
p785
I6303
sVkvm_set_dr
p786
I4641
sVkvm_dev_ioctl_get_cpuid
p787
I4252
sVssl2_part_read
p788
I40
sVuid
p789
I1108
sVaf
p790
I1745
sVnetdev_features_t
p791
I1624
sVah
p792
I2327
sVal
p793
I277
sVstruct rtas_args
p794
I6682
sVuserfaultfd_remove
p795
I4604
sVTCA_PAD
p796
I4834
sVtmp_id_hint
p797
I888
sVnfs_file_open_context
p798
I4658
sVsec_opts
p799
I2469
sVhdspm_tco_sync_check
p800
I3633
sVlace_buf
p801
I3609
sVsnd_ctl_elem_user_put
p802
I3905
sVXFS_FSOP_GEOM_FLAGS_DIRV2
p803
I2957
sVbpf_jit_build_prologue
p804
I4804
sVDTLS_RECORD_LAYER_set_write_sequence
p805
I980
sVclient_finished_label
p806
I771
sVput_page
p807
I4355
sVtempifp
p808
I5385
sVMAX_TCP_KEEPCNT
p809
I4978
sVmask
p810
I1718
sVfree_tty_struct
p811
I2517
sVstruct xfrm6_tunnel *
p812
I3002
sVMpegEncContext *
p813
I5696
sVcpu
p814
I1688
sVavio_rb32
p815
I5666
sVdsr
p816
I5232
sVneigh
p817
I3216
sVPACKET_remaining
p818
I453
sVattrs
p819
I1739
sVsctp_transport_route
p820
I6455
sVVLPF_LIN
p821
I3572
sVtx
p822
I5228
sVtw
p823
I2299
sVtt
p824
I902
sVtp
p825
I3176
sVtail
p826
I1992
sVasize
p827
I2603
sVip_route_input
p828
I5485
sVfskb2
p829
I1983
sVtb
p830
I1630
sVFW_ERROR_BUFFER_SIZE
p831
I3958
sVstruct hlist_node *
p832
I3170
sVfl_remove
p833
I5281
sVshmem_swp_alloc
p834
I1168
sVOTHERNAME_cmp
p835
I838
sVbio_get
p836
I2384
sVnfsd4_decode_close
p837
I1319
sVSSL2_PE_NO_CIPHER
p838
I740
sVrcode
p839
I6699
sVt2
p840
I1020
sVt1
p841
I1022
sVvalid_port_comparison
p842
I2645
sVip_generic_getfrag
p843
I1773
sVSSL_aRSA
p844
I680
sVsync_in
p845
I3630
sVioasa
p846
I4487
sVioasc
p847
I4497
sV__ip_vs_service_get
p848
I6022
sVs_freeblocks_counter
p849
I4417
sVpass
p850
I4815
sVclip_pop
p851
I4303
sVfs_flags
p852
I2466
sVsection
p853
I6266
sVint [ 2 ]
p854
I373
sVEXT4_DESC_SIZE
p855
I1468
sVBT_DBG
p856
I4744
sVmethod
p857
I150
sVhash
p858
I2280
sVICMP_PORT_UNREACH
p859
I4069
sVshmem_swp_unmap
p860
I4187
sVGROUP_STOP_TRAPPING
p861
I1902
sVpmtu_pending
p862
I6465
sVstruct drm_mode_object *
p863
I3078
sVtcfd_defdata
p864
I4853
sVfibsize
p865
I3024
sVsender
p866
I768
sVudp_cmsg_send
p867
I2045
sVstruct serial_state *
p868
I4872
sVPACKET_get_1
p869
I451
sVEVP_CIPHER_CTX_ctrl
p870
I236
sVTCA_DEF_DATA
p871
I4852
sVsync_wc
p872
I3636
sVhdspm_clock_source
p873
I2146
sVngroup
p874
I718
sVhsub
p875
I5613
sVskb_network_header
p876
I1411
sVVM_FAULT_SIGSEGV
p877
I6611
sVVM_HUGETLB
p878
I2762
sVskb_unlink
p879
I6090
sVkvm_queue_exception
p880
I4643
sV6
p881
I364
sVbrcms_dbg_dma
p882
I6093
sVb_ops
p883
I5209
sVbytecode_len
p884
I2638
sVsb_blocksize
p885
I2936
sVGranuleDef *
p886
I3521
sVpid_t
p887
I3108
sVioctx_add_table
p888
I1685
sVTTY_DRIVER_RESET_TERMIOS
p889
I2518
sVstruct shmid64_ds
p890
I2019
sVstruct cmtp_application *
p891
I6047
sVffio_wfourcc
p892
I5869
sVthread_count
p893
I5761
sValert_fragment
p894
I390
sVsense
p895
I3319
sVspin_lock_bh
p896
I4863
sVvp56_coeff_bias
p897
I5535
sVtmp_file
p898
I5037
sVstruct ext4_sb_info *
p899
I1474
sVTIOCM_RNG
p900
I6561
sVEAFNOSUPPORT
p901
I6672
sV"inserting '%s' == %pI4, port %u\u005cn"
p902
I3900
sVstruct snd_aes_iec958
p903
I6543
sVmapping
p904
I1178
sVext4_group_t
p905
I3763
sVAV_WN32
p906
I5750
sVuptr
p907
I2011
sVkey_frame
p908
I5752
sV"not on any transaction: zap"
p909
I5444
sVfname_len
p910
I4027
sVbConfigurationValue
p911
I3895
sVBitAndExpression
p912
I117
sVxfs_vtoi
p913
I5387
sVUSB_RECIP_DEVICE
p914
I3833
sV0xfff
p915
I267
sVitv
p916
I1938
sVtask_lock
p917
I4773
sVfeatures
p918
I1625
sVssl3_send_alert
p919
I653
sVstruct dx_frame [ 2 ]
p920
I4017
sV__u32 __force
p921
I2127
sVdma_addr_t
p922
I3963
sVsk_ipv6only
p923
I6296
sVlaces
p924
I3607
sV"Unsupported pixel format: %d\u005cn"
p925
I5815
sVSSL_CTX_remove_session
p926
I854
sVchar [ 11 ]
p927
I374
sVDR6_VOLATILE
p928
I4918
sVmpa_huff_data
p929
I3540
sVgadget
p930
I3841
sVfind_pid
p931
I6495
sVvsync_waitq
p932
I4330
sValgorithm_ssl
p933
I954
sVxfs_vnodeops
p934
I5352
sVstruct snd_kcontrol *
p935
I1444
sVSOCK_LINGER
p936
I5469
sVstruct cifsTconInfo *
p937
I4548
sVfound
p938
I6701
sVimm_data
p939
I2126
sV32768
p940
I3706
sVvm_page_prot
p941
I4344
sVxfs_sb_version_haslogv2
p942
I2930
sVgfp
p943
I1753
sVerror_recognition
p944
I5936
sVis_yuv
p945
I5607
sVapp_gen_cookie_cb
p946
I507
sVpagelist
p947
I1300
sVstruct sockaddr_irda *
p948
I1872
sVss_size
p949
I1437
sV__lookup_free_nid_list
p950
I4520
sVTIOCSERGSTRUCT
p951
I6569
sV~SS_FLAG_BITS
p952
I6614
sVXBF_STALE
p953
I2582
sVSSL_R_UNEXPECTED_MESSAGE
p954
I871
sVstruct tc_defact
p955
I2362
sVSCTP_IERROR_ERROR
p956
I6660
sVxid
p957
I4536
sVFRAME_RATE_BASE
p958
I5672
sVunregister_netdevice_notifier
p959
I2305
sVprocname
p960
I2102
sVw
p961
I3559
sVdi_anextents
p962
I5348
sVstruct inet_diag_bc_op *
p963
I2837
sVmajor
p964
I2847
sVRSA_free
p965
I650
sVrdata
p966
I606
sVused_dirs
p967
I2789
sVssl3_write_pending
p968
I230
sVnetif_running
p969
I4691
sVkmem_free
p970
I5386
sVd_parent
p971
I3982
sVinet_daddr
p972
I1818
sVsctp_init_cause
p973
I2220
sVHFCUSB_D_RX
p974
I4285
sVbench_new
p975
I3565
sVexponents
p976
I3518
sVsctp_transport_free
p977
I4160
sV"Bitmap dimensions larger than video.\u005cn"
p978
I5944
sVsmin_value
p979
I5269
sVmin_len
p980
I2644
sVSSL2_ST_GET_CLIENT_HELLO_A
p981
I18
sVSSL2_ST_GET_CLIENT_HELLO_C
p982
I49
sVSSL2_ST_GET_CLIENT_HELLO_B
p983
I12
sVsetclientid
p984
I1317
sVstruct aac_srb *
p985
I3812
sVerror_ptr_lo
p986
I3953
sVEVP_PKEY *
p987
I750
sVaad
p988
I232
sVUnaryExpression
p989
I956
sVhead2
p990
I6145
sVhead1
p991
I2815
sVol_txrx_vdev_handle
p992
I6608
sVsk_receive_queue
p993
I2869
sV__ip6_ins_rt
p994
I3141
sVrtextsize
p995
I2973
sVsctp_get_af_specific
p996
I1747
sVkref
p997
I4923
sV__munlock_isolation_failed
p998
I5109
sVbhp
p999
I5365
sVfile_mode
p1000
I6213
sVfree_nid_list
p1001
I6059
sVverify_command
p1002
I3380
sVinsns
p1003
I4793
sVtotalbytes
p1004
I438
sVself
p1005
I1874
sVsnd_ctl_new
p1006
I3683
sVvfs_permission
p1007
I5434
sVis_50hz
p1008
I6034
sVSSL_kRSA
p1009
I682
sVproc_dir
p1010
I2101
sVUINT8 *
p1011
I5669
sVdevpts
p1012
I2519
sVskb_reset_mac_header
p1013
I1996
sV"tun_chr_ioctl cmd %d\u005cn"
p1014
I4089
sVrootflag
p1015
I6337
sVunused
p1016
I5568
sVbh1
p1017
I2809
sVbh2
p1018
I2820
sVIPCB
p1019
I3136
sVseize
p1020
I1908
sVsrc_reg
p1021
I4129
sVSS_FLAG_BITS
p1022
I6552
sVCIFS_MOUNT_OVERR_GID
p1023
I6210
sVSSL3_RT_CHANGE_CIPHER_SPEC
p1024
I384
sVpkey_index
p1025
I2122
sVexp
p1026
I1581
sVipv6_addr_is_multicast
p1027
I2880
sV__tty_fasync
p1028
I3007
sVip_vs_service_put
p1029
I6023
sV"Invalid image size %dx%d.\u005cn"
p1030
I5757
sVsession
p1031
I167
sVsm2_plaintext_size
p1032
I757
sVtun_get
p1033
I3746
sVcr4
p1034
I4911
sVrt_is_input_route
p1035
I5173
sV"owner set to %d\u005cn"
p1036
I4094
sVd2i_ASN1_SEQUENCE_ANY
p1037
I1027
sVuverbs_attr_is_valid
p1038
I4707
sVbyte1
p1039
I3955
sV__lookup_nat_cache
p1040
I4513
sVPT_OPT_FLAG_SHIFT
p1041
I1906
sVservice_response
p1042
I3967
sVInitializerList
p1043
I3433
sVEC_GROUP_free
p1044
I721
sVconst unsigned char *
p1045
I129
sV__ptrace_link
p1046
I4767
sVnb_coefs
p1047
I5547
sVstruct sockaddr_irda
p1048
I2339
sVbytes
p1049
I1232
sVenum ip_conntrack_info
p1050
I1599
sVcoord
p1051
I5774
sVrx_errors
p1052
I4058
sVifindex
p1053
I1087
sVrwstate
p1054
I257
sV0xFFFE
p1055
I5934
sVses
p1056
I1525
sVxfs_sb_version_hassparseinodes
p1057
I2991
sVss_flags
p1058
I1436
sV312
p1059
I4336
sVmnt_sb
p1060
I2213
sVll_driver
p1061
I2718
sVspin_unlock_bh
p1062
I4861
sVsec
p1063
I3126
sVsem
p1064
I1871
sVnops
p1065
I1338
sVfuncs1_names
p1066
I5597
sVmutex
p1067
I6311
sVstruct free_nid *
p1068
I4527
sVRTPROT_BOOT
p1069
I6476
sVavailable
p1070
I4264
sVreclen
p1071
I519
sVnargs
p1072
I6681
sVAV_DICT_IGNORE_SUFFIX
p1073
I5510
sVmapping_gfp_mask
p1074
I1177
sVinterface
p1075
I3857
sVcoeff_idx
p1076
I5521
sVstruct scatterlist *
p1077
I6548
sVhid_get_raw_report
p1078
I2721
sVSSL_OP_COOKIE_EXCHANGE
p1079
I927
sVsctp_packet_empty
p1080
I1249
sVssl_get_message
p1081
I693
sVlength_size
p1082
I1153
sVlast
p1083
I1895
sVSSL3_HM_HEADER_LENGTH
p1084
I434
sVinet_twsk
p1085
I2300
sV__u64
p1086
I2858
sVXFS_FSOP_GEOM_FLAGS_LAZYSB
p1087
I2963
sVSSL_SSLV2
p1088
I953
sVskb_reset_transport_header
p1089
I6261
sVdown_read
p1090
I6063
sVparam_type2af
p1091
I1748
sVAVFilterContext *
p1092
I3468
sVxfs_sb_version_hascrc
p1093
I2971
sVCONFIG_FUTEX_PI
p1094
I6589
sVs_hash_seed
p1095
I3989
sVBIO_snprintf
p1096
I858
sV"session %p skb %p len %d"
p1097
I6051
sVnet_dbg_ratelimited
p1098
I4758
sVfunc
p1099
I2606
sVTTY_IO_ERROR
p1100
I4873
sVSSL_aDSS
p1101
I679
sVskb_reset_tail_pointer
p1102
I6133
sVuoss
p1103
I1441
sVyuv_pix_fmts
p1104
I5888
sVbytestream2_get_le32
p1105
I5729
sVvfs_fallocate
p1106
I4600
sVuobj_put_obj_read
p1107
I4701
sVerror
p1108
I1008
sVset_serial_info
p1109
I4866
sVskip_emulated_instruction
p1110
I2048
sVvol
p1111
I1523
sVsk_uid
p1112
I3761
sVstruct tcf_mirred *
p1113
I4844
sVMAX_TCP_WINDOW
p1114
I2082
sVdi_nblocks
p1115
I5311
sVTASK_UNINTERRUPTIBLE
p1116
I4778
sVmodule_put
p1117
I5135
sVmem_cgroup_shrink_usage
p1118
I1954
sVYAM_IRQ
p1119
I4695
sVstruct futex_hash_bucket *
p1120
I2819
sVmsg_callback_arg
p1121
I195
sVpmcraid_build_passthrough_ioadls
p1122
I4504
sVinet_sk
p1123
I2288
sVsk_nulls_del_node_init_rcu
p1124
I5202
sValert
p1125
I452
sVlevels
p1126
I5046
sVip6_flowinfo
p1127
I5183
sVlinux_uid
p1128
I6205
sVnext_pts
p1129
I5824
sVSOF_TXTIME_REPORT_ERRORS
p1130
I3372
sVtb_id
p1131
I1636
sVDRM_CORE_IOCTL_COUNT
p1132
I2632
sVclock_source
p1133
I2145
sVrt6_lookup
p1134
I6475
sVCP_CONF_ACK
p1135
I5246
sVsaw_tstamp
p1136
I5149
sVdrm_device_is_unplugged
p1137
I2629
sVrequest_buffer
p1138
I4490
sVCP_CONF_NAK
p1139
I3437
sVfile_inode
p1140
I5043
sVuser_config
p1141
I3098
sVTestSetPageLocked
p1142
I1209
sVavio_open2
p1143
I5945
sVlocation
p1144
I6333
sVinput
p1145
I141
sVrequeue_pi_wake_futex
p1146
I5976
sV"HNP inactive\u005cn"
p1147
I4398
sVformat
p1148
I3507
sVanon_rss
p1149
I4921
sVnmaps
p1150
I3265
sVppp_cp_event
p1151
I3435
sVinc_mm_counter_fast
p1152
I4364
sVDSA_FLAG_CACHE_MONT_P
p1153
I801
sVd
p1154
I294
sVsetuids
p1155
I6227
sVicsk_accept_queue
p1156
I5265
sV"pid=%d, cmd=0x%02x, nr=0x%02x, dev 0x%lx, auth=%d\u005cn"
p1157
I6001
sV"%s.%s"
p1158
I6265
sVpict_type
p1159
I5754
sVipv6_address
p1160
I4721
sVnfct
p1161
I4046
sVpalp
p1162
I2660
sVUSB_TYPE_VENDOR
p1163
I3826
sVip6_pkt_discard_out
p1164
I3224
sVl3mdev_master_ifindex_by_index
p1165
I2041
sVgadget_is_superspeed
p1166
I3844
sVpalg
p1167
I749
sVholddly
p1168
I1708
sVicmpv4_xrlim_allow
p1169
I5166
sVrequeue_pi
p1170
I2554
sVbody_size
p1171
I1152
sVUSB_DIR_IN
p1172
I3832
sVuse_os_string
p1173
I3824
sVOPENSSL_free
p1174
I561
sVHDSPM_MADI_INPUT_PEAK
p1175
I5070
sVbc
p1176
I2642
sVbo
p1177
I2096
sVbh
p1178
I1647
sVEFSCORRUPTED
p1179
I6616
sVbp
p1180
I2568
sVskb_postpull_rcsum
p1181
I4609
sVirqflags
p1182
I4292
sV__LINK_STATE_QDISC_RUNNING
p1183
I3138
sV~IPC_64
p1184
I2369
sVmaxlen
p1185
I79
sVcmap
p1186
I3267
sVEXT3_INDEX_FL
p1187
I4462
sVmax_fib_size
p1188
I3027
sVrepair
p1189
I4954
sVskb_network_protocol
p1190
I4621
sVintf
p1191
I4377
sVreset_wait_q
p1192
I1542
sVchar [ 64 ]
p1193
I3420
sVEOPNOTSUPP
p1194
I1576
sVfaddr
p1195
I1794
sVskb_release_head_state
p1196
I1999
sVBUF_MEM_new
p1197
I119
sVkvm_register_write
p1198
I2057
sVu8
p1199
I2900
sVifreq_len
p1200
I1068
sVsuid
p1201
I1110
sVsock
p1202
I1505
sVpeer_rsa_tmp
p1203
I649
sVu3
p1204
I1604
sV:
p1205
I3179
sVVLC *
p1206
I3541
sVTLS1_RT_HEARTBEAT
p1207
I968
sVOTG_STS_SELECTOR
p1208
I3847
sVcompletion_lock
p1209
I5023
sVflow_indication
p1210
I3383
sVdev_addr
p1211
I3312
sVlink
p1212
I1306
sV"checkpointed: add to BJ_Forget"
p1213
I5443
sVatom
p1214
I5659
sVling
p1215
I3340
sVline
p1216
I5785
sVHDSPM_LineOut
p1217
I2160
sVvp6_coeff_groups
p1218
I5530
sVCP_CONF_REJ
p1219
I3438
sVssl3_do_uncompress
p1220
I928
sVkeepalive_time
p1221
I4938
sV"HOME"
p1222
I3105
sVskb_copy_from_linear_data_offset
p1223
I1966
sV0xffffffff
p1224
I1717
sVun
p1225
I6526
sVue
p1226
I3682
sVmake_kuid
p1227
I3743
sVstruct tc_mirred
p1228
I2359
sVScsiPortCommand
p1229
I3934
sVchan
p1230
I3260
sVEVP_DigestFinal
p1231
I1059
sVsxp
p1232
I2407
sVsxu
p1233
I2406
sVVN_MAPPED
p1234
I5376
sVstruct ipq *
p1235
I2757
sVav_fast_malloc
p1236
I3589
sVcodec
p1237
I5506
sVsk_txtime_report_errors
p1238
I3373
sVdev_net
p1239
I2264
sVrevision
p1240
I2683
sVline_out
p1241
I2139
sVsb_hybrid
p1242
I3522
sVdonor_start
p1243
I2859
sVsk_clockid
p1244
I3375
sVec_ptr
p1245
I3081
sVBITS_PER_PAGE_MASK
p1246
I2245
sVuid_valid
p1247
I3745
sVavc1
p1248
I3506
sVpeer_dh_tmp
p1249
I631
sVWARN_ON
p1250
I4585
sV"ret = %x\u005cn"
p1251
I2636
sVINT_MIN
p1252
I3112
sViso_date
p1253
I6339
sVtable_select
p1254
I3525
sVcode
p1255
I2259
sVUVERBS_ATTR_CORE_OUT
p1256
I4706
sVSSL_kEECDH
p1257
I728
sVPACKET
p1258
I454
sVstruct page * *
p1259
I1173
sVfree_ioctx_ref
p1260
I2092
sVnexthdr
p1261
I2884
sVhints
p1262
I6184
sVsent
p1263
I6131
sVhrtimer_cancel
p1264
I2526
sVNETIF_F_GSO_PARTIAL
p1265
I4617
sVin_handshake
p1266
I241
sV"No reserved GDT blocks, can't resize"
p1267
I4451
sV"Failed to init VDA decoder: %d.\u005cn"
p1268
I3496
sVEMSGSIZE
p1269
I6673
sVmagic
p1270
I1720
sVrcv_tsecr
p1271
I5150
sVhas_b_frames
p1272
I5674
sVslice_count
p1273
I5746
sVERESTARTSYS
p1274
I3936
sVZERO_PAGE
p1275
I4841
sV"region=%d n=%d x=%d y=%d exp=%d\u005cn"
p1276
I5621
sVrt_flags
p1277
I1787
sVhdspm_wc_sync_check
p1278
I2153
sVkill_pg_info
p1279
I6387
sVskb_shinfo
p1280
I1957
sVSSL_CIPHER *
p1281
I219
sVFLAG_ACKED
p1282
I5151
sVicsk
p1283
I4926
sVxb_get_locked_waited
p1284
I5218
sVindex
p1285
I2357
sVPIDTYPE_MAX
p1286
I6381
sVaudit_ptrace
p1287
I4774
sVd_inode
p1288
I1611
sVsctp_auth_destroy_keys
p1289
I4152
sVconst __u16
p1290
I2277
sVsas_ss_sp
p1291
I2315
sVext4_r_blocks_count
p1292
I4414
sVbpf_func
p1293
I4803
sVinit_completion
p1294
I4507
sVlen
p1295
I30
sVget_rttos
p1296
I3759
sVnf_conntrack_put
p1297
I4048
sVwrite_behind_rc
p1298
I4533
sVtoo_many_pipe_buffers_hard
p1299
I1765
sVcts
p1300
I5233
sVctx
p1301
I418
sV"get_write_access"
p1302
I4479
sVctd
p1303
I3439
sVhuff_vlc
p1304
I3539
sVAV_EF_EXPLODE
p1305
I5935
sV"mtu %d"
p1306
I4745
sVmutex_lock_nested
p1307
I1619
sVMSG_CMSG_COMPAT
p1308
I1578
sVsgp
p1309
I1166
sVstruct ib_uverbs_wc
p1310
I4698
sVmpeg2
p1311
I5695
sVnfsd4_decode_setclientid_confirm
p1312
I1291
sVpag_buf_hash
p1313
I5207
sV__ipv6_neigh_lookup_noref
p1314
I2177
sVsge
p1315
I3942
sVXFS_FSOP_GEOM_FLAGS_REFLINK
p1316
I2990
sV__insert_free_nid
p1317
I4521
sVNVERSION
p1318
I3423
sVnext
p1319
I533
sVumin_value
p1320
I5268
sVSSL_kSRP
p1321
I729
sVMM_ANONPAGES
p1322
I4365
sVconst struct Qdisc_class_ops *
p1323
I4106
sVon
p1324
I3006
sVb43dbg
p1325
I6115
sVSSL_HANDSHAKE_MAC_SHA256
p1326
I994
sVMAY_READ
p1327
I2433
sVtun_attach_filter
p1328
I6422
sVfib_table_lookup
p1329
I1632
sVnew_len
p1330
I1140
sVrt6i_metric
p1331
I3190
sVrt_mutex_start_proxy_lock
p1332
I5973
sVthis
p1333
I2818
sVchallenge
p1334
I572
sVstruct rb_node *
p1335
I5987
sVcbSize
p1336
I5911
sVslid
p1337
I2121
sVdgst
p1338
I778
sVlock
p1339
I796
sVhigh
p1340
I3041
sVfprintf
p1341
I946
sVcsum
p1342
I1402
sVav_mallocz
p1343
I5640
sVconst unsigned char * *
p1344
I897
sVsecurity_sk_classify_flow
p1345
I4898
sVhdspm
p1346
I2141
sVssl_cipher_list_to_bytes
p1347
I271
sVmaster_key
p1348
I201
sVpitem_free
p1349
I609
sVIP_VS_SO_GET_MAX
p1350
I3397
sVTCA_MIRRED_PARMS
p1351
I2351
sVblocks
p1352
I3049
sV"IO failure"
p1353
I6620
sVnf_checksum_partial
p1354
I1828
sVDDS_NONE
p1355
I5766
sVnr_wake
p1356
I2550
sVbio_endio
p1357
I2380
sVallow
p1358
I578
sVchar *
p1359
I44
sVop
p1360
I1262
sVretval
p1361
I1120
sVcont_extent
p1362
I6374
sVvma
p1363
I1144
sVETH_P_IP
p1364
I5197
sVstruct fb_vblank
p1365
I1944
sVdelay
p1366
I5821
sVinet_num
p1367
I4588
sVICMPV6_HDR_FIELD
p1368
I4761
sVssl_read_bytes
p1369
I459
sVdispose
p1370
I6248
sVsrcu_idx
p1371
I5258
sVstruct inet_timewait_death_row *
p1372
I2297
sVIPV6_ADDR_LINKLOCAL
p1373
I6484
sVPMCRAID_ADD_CMD_PARAM_LEN
p1374
I3667
sVpte_offset_map_lock
p1375
I4356
sVstruct tcp_cookie_transactions
p1376
I3455
sVPT_SEIZED
p1377
I1905
sVMSR_VEC
p1378
I1663
sVvbl_lock
p1379
I4293
sVchar [ TCP_CA_NAME_MAX ]
p1380
I2079
sVsin6_flowinfo
p1381
I5182
sVDRM_MODE_FB_DIRTY_FLAGS
p1382
I3067
sVSRB_DataOut
p1383
I3807
sVfprog
p1384
I4074
sV__munlock_isolate_lru_page
p1385
I5107
sVsx_length
p1386
I5344
sVioff
p1387
I2577
sVssl2_get_cipher_by_char
p1388
I215
sVmeta
p1389
I2772
sVmeth
p1390
I790
sVHDSPM_statusRegister
p1391
I5079
sVselinux_state
p1392
I4730
sVuser_mode
p1393
I1346
sVMS_RMT_MASK
p1394
I2476
sVIPV6_ADDR_UNICAST
p1395
I6483
sVmc_index
p1396
I1793
sVipv6_recv_error
p1397
I5503
sVadd_dirent_to_buf
p1398
I3979
sVdst_ref
p1399
I3563
sVdst_reg
p1400
I4138
sVnlmsg_flags
p1401
I1077
sVtxdelay
p1402
I1710
sVnb_outputs
p1403
I3478
sVlist_empty
p1404
I3157
sVlength
p1405
I140
sV"%s: dma_rx len %d\u005cn"
p1406
I6097
sVnla_get_u32
p1407
I3239
sVtp_wma_handle
p1408
I5963
sVsem_post
p1409
I5562
sVext4_journal_dirty_metadata
p1410
I4407
sVpage_add_new_anon_rmap
p1411
I4342
sVihl
p1412
I3131
sVowner
p1413
I3300
sVSCTP_ERROR_UNKNOWN_PARAM
p1414
I2221
sVrlimit
p1415
I6531
sVisonum_733
p1416
I6332
sVoffset
p1417
I184
sVunsigned long __user
p1418
I2138
sVmsg_name
p1419
I1563
sVstack_t
p1420
I2316
sVIFNAMSIZ
p1421
I3152
sVwordclock_sync_check
p1422
I2152
sVcapi_ctr_ready
p1423
I3395
sVgeneric_permission
p1424
I5426
sVRT_TOS
p1425
I5486
sV__neigh_lookup_errno
p1426
I3217
sVnm_i
p1427
I4514
sVTLS1_2_VERSION
p1428
I278
sVsack_rtt_us
p1429
I5157
sVREQ_TYPE_BLOCK_PC
p1430
I3325
sVsock_net
p1431
I1813
sV"Failed to open H.264 decoder.\u005cn"
p1432
I3495
sVIVTVFB_DEBUG_INFO
p1433
I6550
sVXFS_DINODE_FMT_LOCAL
p1434
I5337
sVsk_napi_id
p1435
I3377
sVfalse
p1436
I2498
sVCOMPLETE
p1437
I3036
sVcnum
p1438
I6651
sVpeer_chunks
p1439
I4176
sVYAM_TXTAIL
p1440
I6645
sVon_sig_stack
p1441
I2307
sVasn1_template_noexp_d2i
p1442
I900
sVasconf_addr_del_pending
p1443
I4166
sVU32_MAX
p1444
I4149
sVtls12_get_hash
p1445
I971
sVbs_ctime
p1446
I5359
sVLL_ALLOCATED_SPACE
p1447
I6124
sVrand_premaster_secret
p1448
I480
sVinet_csk
p1449
I4927
sVsdif
p1450
I5203
sVcipher
p1451
I207
sVb_blocknr
p1452
I4410
sVXFS_ERROR
p1453
I6549
sVdevice
p1454
I1851
sV__snd_ctl_add_replace
p1455
I3704
sVaio_nr
p1456
I1682
sVax25_call
p1457
I3717
sVframe_rate_tab
p1458
I5680
sVclient_version
p1459
I293
sVFlacEncodeContext *
p1460
I5908
sVhost_lock
p1461
I4512
sVfilter_prog
p1462
I6433
sVIP6CB
p1463
I2893
sVredirect
p1464
I3724
sVsock_error
p1465
I2870
sVstruct bpf_reg_state *
p1466
I4128
sVsk_SSL_CIPHER_find
p1467
I495
sVy_w
p1468
I5839
sVIndeo3DecodeContext *
p1469
I5826
sVy_h
p1470
I5837
sVCMTP_MAPPING
p1471
I6044
sVisofs_sb
p1472
I6319
sVenum ip_conntrack_info *
p1473
I2172
sVhandle
p1474
I1084
sVUSB_GADGET_DELAYED_STATUS
p1475
I3853
sVscantable
p1476
I5537
sVtcp_push_pending_frames
p1477
I4984
sVstruct rt6_info *
p1478
I2185
sVgbc
p1479
I5730
sVh
p1480
I3114
sVsg_per_table
p1481
I2843
sVconst u32
p1482
I2529
sVsvm_set_msr
p1483
I2488
sVav_packet_copy_props
p1484
I3576
sVconst struct cred *
p1485
I5423
sVdmactrlflags
p1486
I6105
sVkvm_mce_cap_supported
p1487
I4258
sVbtp
p1488
I2574
sVinput_format
p1489
I5084
sV"t=%d code=%d\u005cn"
p1490
I5618
sVframe
p1491
I3975
sVCifsExiting
p1492
I4486
sVpacket
p1493
I334
sViov_len
p1494
I2318
sVrb_right
p1495
I2570
sVdrm_framebuffer_lookup
p1496
I3063
sVmove_addr_to_kernel
p1497
I6398
sVisnan
p1498
I5589
sVl3mdev_get_saddr6
p1499
I2199
sVstruct hdspm_peak_rms_ioctl
p1500
I6687
sVu_ent
p1501
I2672
sVvoid * [ 32 ]
p1502
I3805
sVstruct tun_file *
p1503
I3303
sVmsg_callback
p1504
I192
sVGUEST_RIP
p1505
I2065
sVwake_q
p1506
I5978
sVPN
p1507
I6344
sVendp
p1508
I4375
sVip_vs_backup_mcast_ifn
p1509
I3401
sVtsoffset
p1510
I4960
sVle
p1511
I6419
sVav_pix_fmt_descriptors
p1512
I5582
sVstruct shminfo64
p1513
I6670
sVinet_csk_enter_pingpong_mode
p1514
I5001
sVULTRA_MAX_DATA
p1515
I6178
sVtlv
p1516
I3687
sVstruct ip_vs_service_entry *
p1517
I6017
sVstreams
p1518
I5656
sVunsigned char [ MAX_GET_ARGLEN ]
p1519
I3418
sVci
p1520
I1849
sVlock_flags
p1521
I4511
sVcl
p1522
I345
sV572
p1523
I3536
sVca
p1524
I1846
sVcg
p1525
I5526
sV576
p1526
I3524
sVcd
p1527
I4741
sVtun_set_sndbuf
p1528
I6430
sVcs
p1529
I567
sVcq
p1530
I1724
sVcp
p1531
I206
sVct
p1532
I1590
sVchunk_hdr
p1533
I2223
sVint16_t [ 240 ]
p1534
I3550
sV"Error when parsing the expression '%s' for the component %d.\u005cn"
p1535
I5594
sVssl2_rollback
p1536
I487
sV"Found %d mipmaps (ignored).\u005cn"
p1537
I5759
sVTCP_NAGLE_OFF
p1538
I4943
sVstruct ip_vs_timeout_user
p1539
I3413
sVNULL_ADDR
p1540
I4515
sVSSL3_RT_HANDSHAKE
p1541
I361
sVt_sec
p1542
I5357
sVtermios
p1543
I2513
sVneighbour
p1544
I2484
sV"non-core control req%02x.%02x v%04x i%04x l%d\u005cn"
p1545
I4386
sVwpend_tot
p1546
I233
sVext3_next_entry
p1547
I4031
sVFI_REMAPF
p1548
I5375
sVm_dirblksize
p1549
I2976
sVcvp
p1550
I3442
sVrbp
p1551
I2565
sVxfs_sb_version_hasfinobt
p1552
I2985
sVhas_cookie_echo
p1553
I1255
sVSSL_clear
p1554
I516
sVcountry
p1555
I2700
sVvd
p1556
I3904
sVgso_size
p1557
I1973
sVs_addr
p1558
I1567
sVnot_resumable
p1559
I298
sVvp
p1560
I5366
sVVP56Model *
p1561
I5538
sVsb_rblocks
p1562
I2922
sVs2n
p1563
I189
sVhdspm_read
p1564
I3638
sVif_extents
p1565
I5297
sVsx_fdtmp
p1566
I5038
sVms_flags
p1567
I2462
sVthin_dupack
p1568
I4951
sVXFS_SB_VERSION_HASNLINK
p1569
I3162
sVexpand
p1570
I932
sVoff
p1571
I96
sVAV_LOG_ERROR
p1572
I3494
sVSOCK_PASSSEC
p1573
I3338
sV"inodes_count overflow"
p1574
I4454
sVstruct netns_frags *
p1575
I3019
sVhid_ignore
p1576
I3262
sVaac_fib_alloc
p1577
I3030
sVSHMEM_PAGEIN
p1578
I4195
sV"invalid ioctl: pid=%d, dev=0x%lx, auth=%d, cmd=0x%02x, nr=0x%02x\u005cn"
p1579
I6000
sVDRM_DEBUG
p1580
I2607
sVguest_debug
p1581
I2069
sVEXT4_NUM_B2C
p1582
I4434
sVsm2_decrypt
p1583
I754
sVKVM_EXIT_DEBUG
p1584
I2058
sVuint8_t [ 8192 ]
p1585
I6516
sVf_mode
p1586
I2414
sVuverbs_request
p1587
I1740
sVSSL3_RANDOM_SIZE
p1588
I268
sVXFS_ITOV
p1589
I5335
sVvar_off
p1590
I4137
sVextradata_size
p1591
I3486
sV"Journal has aborted"
p1592
I6618
sVIS_GETLK
p1593
I1680
sVdest
p1594
I395
sVsock_getbindtodevice
p1595
I5463
sVset_bit
p1596
I4308
sVdtls1_hm_fragment_free
p1597
I562
sVHDSPM_ADDON_TCO
p1598
I3615
sVshmem_unacct_size
p1599
I4835
sVpassword
p1600
I3728
sVpeeked
p1601
I2871
sVdesc
p1602
I3885
sVresid
p1603
I6083
sV"ping_recvmsg(sk=%p,sk->num=%u)\u005cn"
p1604
I5198
sVNLM_F_CREATE
p1605
I3248
sVmemdup_user
p1606
I3258
sVcard_type
p1607
I3617
sVrequest_offset
p1608
I3652
sVnr_frags
p1609
I1984
sVrt6i_dst
p1610
I3195
sVstruct inet_frag_queue *
p1611
I3015
sVtransport
p1612
I3177
sVhba_map
p1613
I3918
sVTCP_REPAIR_ON
p1614
I5000
sV256
p1615
I990
sV"A VBLK claims to have %d parts."
p1616
I4288
sVconst struct usb_ctrlrequest *
p1617
I3822
sVtimer_pending
p1618
I4182
sVEXT4_FEATURE_INCOMPAT_FLEX_BG
p1619
I4422
sV"Error when evaluating the expression '%s' for the value %d for the component #%d.\u005cn"
p1620
I5592
sVXFS_TRANS_SWAPEXT
p1621
I5305
sVbMaxPacketSize0
p1622
I3889
sVENOSYS
p1623
I6690
sVstruct kvm_vcpu *
p1624
I1665
sVshared_sigalgslen
p1625
I600
sVxfrm6_rcv_spi
p1626
I2996
sVhash_version
p1627
I3987
sVirias_add_integer_attrib
p1628
I1881
sVchunk_max
p1629
I103
sVimage_offset_y
p1630
I5773
sVext4_journal_get_write_access
p1631
I1480
sVsctp_sstate
p1632
I4163
sV.
p1633
I1487
sVsk_v6_rcv_saddr
p1634
I2302
sVpskb
p1635
I2997
sVext4_is_quota_file
p1636
I6258
sVioctl_count
p1637
I5999
sV__SetPageUptodate
p1638
I4348
sVkinvp
p1639
I791
sVext4_rec_len_from_disk
p1640
I4013
sVlast_use
p1641
I4313
sVresponse_handle
p1642
I4500
sVunsigned short
p1643
I982
sVj_state_lock
p1644
I5462
sVstruct sockaddr *
p1645
I554
sVenum sgp_type
p1646
I1165
sVput_fs_context
p1647
I4750
sVmk_kdev
p1648
I6369
sVhlist_add_head
p1649
I3017
sVnum_pads
p1650
I2681
sVgetenv
p1651
I3104
sVbRequest
p1652
I3828
sVdouble_unlock_hb
p1653
I5979
sVcount
p1654
I1446
sVwait_for_packet
p1655
I2864
sVspin_lock_init
p1656
I5007
sVSSL3_RT_MAX_EXTRA
p1657
I1046
sVreslevel
p1658
I5804
sVlist_move_tail
p1659
I5122
sVint
p1660
I51
sVs_group_desc
p1661
I1482
sVinp
p1662
I258
sVENETDOWN
p1663
I6520
sVinf
p1664
I99
sVNULL
p1665
I120
sVstruct Qdisc *
p1666
I1082
sVCMTP_MSGNUM
p1667
I6045
sVstruct ip_vs_service_entry
p1668
I6019
sVlock_sock
p1669
I4747
sVSizeofExpr
p1670
I244
sVhashinfo
p1671
I4578
sVEBADFD
p1672
I6593
sVnak_len
p1673
I3428
sVlookup
p1674
I1309
sVstruct dx_hash_info
p1675
I6615
sVAVERROR_EXTERNAL
p1676
I6607
sVSSL3_RT_HEADER
p1677
I193
sVsock_orphan
p1678
I4828
sVbnep_add_connection
p1679
I1844
sVicmpv6_param_prob
p1680
I3116
sVmove_from_swap_cache
p1681
I1183
sVU
p1682
I6510
sV__tun_get
p1683
I3306
sVatomic_dec
p1684
I5998
sVtcm_family
p1685
I1092
sVqdisc
p1686
I6301
sVsys_shmctl
p1687
I4877
sVb_rhash_head
p1688
I5211
sVstruct frag_queue *
p1689
I1414
sVrd_sg_count
p1690
I6171
sVTCA_KIND
p1691
I4108
sVeos
p1692
I109
sVsecurity_sb_remount
p1693
I2201
sVDRM_COMMAND_END
p1694
I2627
sVDDSContext *
p1695
I5731
sVptl
p1696
I4337
sV"%p vcc %p\u005cn"
p1697
I4311
sVstruct nlmsghdr *
p1698
I1094
sVip6_datagram_recv_common_ctl
p1699
I5189
sVAVMEDIA_TYPE_VIDEO
p1700
I5861
sVip6_route_output_flags
p1701
I2191
sVtcm_info
p1702
I1090
sVXFS_SB_VERSION_HASSHARED
p1703
I3166
sVXFS_FSOP_GEOM_FLAGS_NLINK
p1704
I2946
sVconst char *
p1705
I73
sVDEBUG_REG_ACCESS_NUM
p1706
I1671
sVMAX_CONTROL_COUNT
p1707
I2173
sVhrtimer_start_expires
p1708
I2524
sVpipe_lock
p1709
I4224
sVicmp_param
p1710
I2266
sVrt6_nexthop
p1711
I2178
sVrx_bytes
p1712
I4049
sVl_onoff
p1713
I5468
sVcmd
p1714
I1064
sVlocks_wake_up_blocks
p1715
I5279
sVdriver_data
p1716
I2712
sVindices
p1717
I4248
sVucontext
p1718
I1727
sVdccph_cscov
p1719
I1836
sVEVP_PKEY_free
p1720
I670
sVff_v4l2_buffer_enqueue
p1721
I5571
sVstruct inode *
p1722
I1188
sVstruct dma_info *
p1723
I6101
sVstruct dccp_hdr *
p1724
I1842
sV__skb_try_recv_datagram
p1725
I3052
sVpqueue_insert
p1726
I558
sVrxbufsize
p1727
I6085
sVout_format
p1728
I5703
sVSSL_READING
p1729
I847
sVunsigned char
p1730
I234
sVIFA_F_OPTIMISTIC
p1731
I3725
sVresidual
p1732
I5902
sVupsg
p1733
I3792
sVfl4_sport
p1734
I2024
sVstruct bcm_op *
p1735
I4820
sVhandshake_write_seq
p1736
I978
sVitems
p1737
I3677
sVsctp_asconf_queue_teardown
p1738
I4158
sVV4L2Buffer *
p1739
I5558
sVip6_output
p1740
I3227
sVbuffer_dirty
p1741
I1649
sVE2BIG
p1742
I6599
sVSSL23_ST_SR_CLNT_HELLO_B
p1743
I326
sVSSL23_ST_SR_CLNT_HELLO_A
p1744
I337
sVconst struct ipv6hdr *
p1745
I2898
sVTCP_REPAIR_OFF
p1746
I4998
sVEBUSY
p1747
I1603
sVbrk
p1748
I5223
sVtotal
p1749
I5639
sVtrace_xfs_buf_find
p1750
I2567
sVfl_link
p1751
I5280
sVwait_event_interruptible_timeout
p1752
I1541
sVcurval2
p1753
I2830
sVfastopen_queue_tune
p1754
I4996
sVlocal_prk
p1755
I1040
sVin_reset
p1756
I3031
sVdid_sync
p1757
I2086
sVsb_dblocks
p1758
I2910
sVrx_dropped
p1759
I5247
sVoverrun
p1760
I5227
sVerr
p1761
I1242
sVSSL_R_APP_DATA_IN_HANDSHAKE
p1762
I880
sVclearpkt
p1763
I1050
sVwork
p1764
I2255
sVIS_CHECKPOINTED
p1765
I4518
sVifr_addr
p1766
I3646
sVssl3_release_read_buffer
p1767
I852
sVDRM_UNLOCKED
p1768
I5994
sVu64
p1769
I2491
sVdo_split
p1770
I3983
sVconst struct hlist_node *
p1771
I4589
sVprepare_to_wait
p1772
I4331
sVrtas_arg_t *
p1773
I5252
sVdrm_vblank_put
p1774
I4297
sVverify
p1775
I1302
sVstruct user_aac_srb __user *
p1776
I3021
sVpeer_finish_md_len
p1777
I766
sVstruct clip_vcc
p1778
I1374
sVtuplehash
p1779
I1605
sVpmcraid_internal_done
p1780
I4508
sVflex_group
p1781
I2781
sVkvm_require_cpl
p1782
I1667
sVRTF_EXPIRES
p1783
I3197
sVBIO_dgram_set_peer
p1784
I540
sVchar [ TCP_ULP_NAME_MAX ]
p1785
I2084
sVlookup_pi_state
p1786
I2831
sVipv6_chk_mcast_addr
p1787
I2881
sVarch
p1788
I2053
sVSM2_PKEY_CTX *
p1789
I759
sVfskb
p1790
I1968
sVstruct ip_options *
p1791
I6406
sVsx_fdtarget
p1792
I2410
sVsk_protocol
p1793
I2344
sVscsi_req
p1794
I3174
sVssl23_read_bytes
p1795
I339
sVBLK_DEFAULT_TIMEOUT
p1796
I4843
sVbi_size
p1797
I2370
sVTCP_COOKIE_OUT_NEVER
p1798
I3458
sVaddr_lo
p1799
I3946
sVavio_wb32
p1800
I5871
sVadd_data
p1801
I3657
sVproto_unreach_timer
p1802
I6408
sVnud_state
p1803
I2187
sVinqueue
p1804
I4175
sVSSL_R_APPLICATION_DATA_AFTER_CLOSE_NOTIFY
p1805
I883
sVxfs_daddr_t
p1806
I3276
sVnew_version
p1807
I2981
sVFFMIN
p1808
I3515
sVfragment
p1809
I321
sVCMTP_INITIAL_MSGNUM
p1810
I2743
sV"IrDA:TinyTP:LsapSel"
p1811
I1882
sVcap_permitted
p1812
I1115
sVband
p1813
I5794
sVproc_create_data
p1814
I2099
sVMPV_common_init
p1815
I5706
sVu_int16_t
p1816
I1608
sVbackup_mcast_ifn
p1817
I3410
sVBUF_strdup
p1818
I887
sVERR_GET_REASON
p1819
I113
sVVAR_H
p1820
I5577
sVff_wav_codec_get_id
p1821
I5913
sVl
p1822
I292
sVsk_write_space
p1823
I4995
sVNOTIFY_MAX_NAME
p1824
I2330
sValloc_zeroed_user_highpage_movable
p1825
I2072
sVslen
p1826
I98
sVTLSv1_1_server_method
p1827
I820
sVtwsk_net
p1828
I2539
sVEC_KEY_new
p1829
I1004
sVfl_gw6
p1830
I3719
sVVN_HOLD
p1831
I5372
sVget_compat_shmid64_ds
p1832
I2016
sVnetwork
p1833
I3714
sVIPTOS_PREC_INTERNETCONTROL
p1834
I5174
sVstruct shmem_sb_info *
p1835
I1213
sVi_rdev
p1836
I6328
sVMNT_LOCK_NODEV
p1837
I2458
sVDRM_IOCTL_DMA
p1838
I2626
sVbandpos
p1839
I5811
sVsprintf
p1840
I1927
sVcoded_width
p1841
I5724
sVBN_sub_word
p1842
I734
sVhb_waiters_dec
p1843
I5980
sVendpoint_shared_keys
p1844
I4153
sVSIZE_MAX
p1845
I88
sVtcon
p1846
I4545
sVBUG_TRAP
p1847
I4595
sVtcp_time_stamp
p1848
I4961
sVstruct inet_skb_parm
p1849
I3135
sV++
p1850
I60
sVAF_INET
p1851
I1571
sVID3D11Device_Release
p1852
I5637
sVrenew
p1853
I1315
sVxfs_perag_get
p1854
I2573
sVprogressive_sequence
p1855
I5707
sVunsigned char [ SSL_MAX_MASTER_KEY_LENGTH ]
p1856
I492
sVstrncpy
p1857
I2329
sVext4_mb_get_buddy_cache_lock
p1858
I4439
sVCHECKSUM_HW
p1859
I3033
sVcl_ops
p1860
I1080
sVstruct icmp_bxm *
p1861
I5165
sVmfsymlinks
p1862
I6242
sVdprintk
p1863
I5003
sVdprintf
p1864
I5685
sVwbuf
p1865
I174
sVB
p1866
I710
sVversmajor
p1867
I543
sVSNDRV_CTL_ELEM_ACCESS_WRITE
p1868
I4711
sVdrm_modeset_unlock_all
p1869
I6309
sVbt_mount
p1870
I2575
sVblk_queue_bounce
p1871
I2379
sVssl_handshake_start
p1872
I295
sVIFF_UP
p1873
I3308
sVdev_get_by_index
p1874
I2106
sVquantize_mantissas_blk_ch
p1875
I5541
sVuint64_t
p1876
I5055
sVSOCK_NOSPACE
p1877
I3749
sVmnt_gid
p1878
I6188
sVMAY_ACCESS
p1879
I6577
sVDH_new
p1880
I996
sVsbinfo
p1881
I1192
sVsetclientid_confirm
p1882
I1292
sVvm_start
p1883
I1149
sVstruct sockaddr_can *
p1884
I2095
sVcontents
p1885
I1161
sVfirmware_rev
p1886
I3616
sVpinstance
p1887
I1538
sVMAX_TCP_KEEPINTVL
p1888
I4979
sVSSL3_RECORD
p1889
I610
sVstruct nfs4_state *
p1890
I4657
sVfname
p1891
I4022
sVnr_requeue
p1892
I2549
sVSOCK_NOFCS
p1893
I3344
sVESRCH
p1894
I6380
sVX509 *
p1895
I590
sV"IP Virtual Server version %d.%d.%d (size=%d)"
p1896
I3421
sVdtls1_max_handshake_message_len
p1897
I463
sVkvm_dev_ioctl_get_supported_cpuid
p1898
I4240
sVunmap_descbuffer
p1899
I6075
sVfl6_src
p1900
I2482
sVinit_num
p1901
I48
sVpassthru
p1902
I2142
sVvalid_accm
p1903
I3431
sVSSL_ENC_FLAG_SHA256_PRF
p1904
I625
sVsctp_association_hold
p1905
I6409
sVSSL3_RT_MAX_PACKET_SIZE
p1906
I199
sVrb_replace_node
p1907
I6504
sVcompat_uptr_t
p1908
I2662
sVGFP_ATOMIC
p1909
I1182
sVmpeg_enc_ctx_allocated
p1910
I5708
sVdevtype
p1911
I3922
sViops
p1912
I1261
sVs_index
p1913
I3520
sVprotocol
p1914
I4065
sVtipc_own_addr
p1915
I6268
sVd1
p1916
I283
sVavailable_nids
p1917
I4531
sVpartial_page
p1918
I1662
sVenc_read_ctx
p1919
I388
sVlowpass_line
p1920
I3571
sVdh
p1921
I651
sVdi
p1922
I6084
sVdd
p1923
I375
sVde
p1924
I3980
sVdb
p1925
I2066
sVuaddr
p1926
I1512
sVis_export
p1927
I209
sVb_data
p1928
I1471
sVdr
p1929
I1669
sVds
p1930
I5052
sVREAD_DEFECT_DATA_TIMEOUT
p1931
I3330
sVstruct ifreq *
p1932
I1692
sVraw_sk
p1933
I3117
sVASN1_TYPE
p1934
I1035
sVstrncmp
p1935
I365
sVGFP_DMA32
p1936
I2800
sV"NFS: permission(%s/%ld), mask=0x%x, res=%d\u005cn"
p1937
I5407
sVlowpass
p1938
I3573
sVlinux_gid
p1939
I6190
sVtex_ratio
p1940
I5762
sVfc_gateway
p1941
I6473
sVcachethis
p1942
I3186
sVstruct tty_struct *
p1943
I2515
sVSOCK_URGINLINE
p1944
I3356
sVext3_mark_inode_dirty
p1945
I4477
sVwb
p1946
I173
sVunsigned long long
p1947
I4215
sVwr
p1948
I139
sVwq
p1949
I5016
sVget_buffer
p1950
I3491
sVupdate_filter
p1951
I4082
sVfdsp
p1952
I5876
sVstruct fs_context *
p1953
I2478
sVib_poll_cq
p1954
I2130
sVsock_tx_timestamp
p1955
I1815
sVis_out_60hz
p1956
I4333
sVhas_auth
p1957
I1258
sVDTLS1_RT_HEADER_LENGTH
p1958
I520
sVsctp_transport_pmtu_check
p1959
I6461
sVSOCK_WIFI_STATUS
p1960
I3346
sVCIFS_MOUNT_MF_SYMLINKS
p1961
I6238
sVfl4_src
p1962
I4883
sVrtas_token_lock
p1963
I5256
sVring_lock
p1964
I4678
sVfrmType
p1965
I5959
sVxb_miss_locked
p1966
I5220
sVdirn
p1967
I835
sVip_vs_sync_state
p1968
I3821
sVstruct hdspm_ltc
p1969
I5081
sV"bits_left=%d\u005cn"
p1970
I5894
sVeofs
p1971
I3273
sVnsock
p1972
I1845
sV"%s: packet:%p vtag:0x%x\u005cn"
p1973
I4228
sVu8 const [ 6 ]
p1974
I3432
sV"invalid rec_len for '..' in inode %lu"
p1975
I4465
sVendpoints
p1976
I4376
sVunlikely
p1977
I1124
sVopt
p1978
I895
sVAF_UNSPEC
p1979
I1091
sVpgoff
p1980
I4117
sVn2s
p1981
I585
sVip_fast_csum
p1982
I3133
sVconn
p1983
I1860
sVS32_MAX
p1984
I4141
sVipv6_addr_type
p1985
I6469
sVadd_cmd_param_offset
p1986
I3654
sVprepathlen
p1987
I6203
sVqdisc_run_end
p1988
I6271
sVput_group_info
p1989
I3043
sVep0
p1990
I3843
sVDRM_ROOT_ONLY
p1991
I2614
sVgeneric_osync_inode
p1992
I4205
sVi_file_format
p1993
I6366
sVstruct codegen_context
p1994
I6536
sV__u64 *
p1995
I2862
sV"command(%d) (CDB[0] = %x) for %x\u005cn"
p1996
I4499
sVnid
p1997
I2396
sVorig_inode
p1998
I2861
sVY
p1999
I6513
sVnip
p2000
I1345
sVcpu_to_le16
p2001
I1455
sVREGMASK
p2002
I4826
sVnet_gso_ok
p2003
I4625
sVmin
p2004
I71
sVclient
p2005
I555
sVsk_setup_caps
p2006
I6453
sVSSL3_RT_APPLICATION_DATA
p2007
I143
sVpage_count
p2008
I2798
sVfl_start
p2009
I1678
sVff_vector_fmul_altivec
p2010
I5883
sVXFS_FSOP_GEOM_FLAGS_FINOBT
p2011
I2983
sVin_dev_get
p2012
I6395
sVDH *
p2013
I911
sVMOVTrack *
p2014
I5843
sVERR_R_INTERNAL_ERROR
p2015
I877
sVUSB_DT_DEVICE
p2016
I3894
sVmsglen
p2017
I522
sVrng
p2018
I5231
sV__netif_schedule
p2019
I6269
sVconst char __user *
p2020
I1722
sVeuid
p2021
I1109
sVssl3_do_compress
p2022
I166
sVXBF_TRYLOCK
p2023
I6575
sVsctp_get_ecne_prepend
p2024
I4230
sVlogblocks
p2025
I2937
sV__dispose_buffer
p2026
I5436
sVbpp
p2027
I5720
sVSSL_aNULL
p2028
I675
sVKVM_PAM
p2029
I5262
sVinet6_sk
p2030
I2181
sVstruct fib6_config *
p2031
I3145
sVinet_get_ping_group_range_net
p2032
I6295
sVstruct fd
p2033
I6677
sVSSL_in_init
p2034
I240
sV0x40000000
p2035
I3974
sVFLAGS_SHARED
p2036
I2825
sV/
p2037
I3263
sVilf_fields
p2038
I5320
sVtask_sid_obj
p2039
I4731
sVSSL3_MT_HELLO_REQUEST
p2040
I414
sVpeek
p2041
I377
sVb_modified
p2042
I5447
sVunion nf_inet_addr
p2043
I1609
sVsk_attach_filter
p2044
I4091
sVavc_has_perm
p2045
I4727
sVpeer
p2046
I1520
sVold_encode_dev
p2047
I5993
sVCIFS_MOUNT_FSCACHE
p2048
I6235
sVWARN
p2049
I4399
sVobj
p2050
I3074
sVnew_bp
p2051
I2557
sValg_a
p2052
I703
sVopen_confirm
p2053
I1287
sVext4_mb_add_more_groupinfo
p2054
I5242
sValg_k
p2055
I702
sVxfs_daddr_to_agno
p2056
I2576
sVstruct fake_dirent *
p2057
I4007
sVinet_opt
p2058
I2029
sVluma_height
p2059
I5838
sVnfsd4_decode_write
p2060
I1303
sVrd_dev
p2061
I2436
sVs64
p2062
I2013
sVKVM_MCE_CAP_SUPPORTED
p2063
I6597
sVmode_config
p2064
I6312
sVtcp_disable_early_retrans
p2065
I4962
sVstruct flowi
p2066
I4044
sVint * [ 4 ]
p2067
I5806
sVfloat
p2068
I6542
sVfibnl
p2069
I5970
sVbound
p2070
I2097
sVdst_clone
p2071
I4896
sVAF_ECONET
p2072
I3647
sVsecurity_ptrace
p2073
I1121
sVMNT_NOEXEC
p2074
I2455
sVmeminfo
p2075
I5467
sVbuf_size
p2076
I3544
sVext4_msg
p2077
I5491
sV~MSG_DONTWAIT
p2078
I1494
sVYAM_IOBASE
p2079
I4694
sVsetup_rx_descbuffer
p2080
I6073
sVadf_nbuf_t
p2081
I5953
sVXFS_FSOP_GEOM_FLAGS_EXTFLG
p2082
I2955
sVkmem_cache_zalloc
p2083
I2087
sVpq_64bit_free
p2084
I1053
sVconst EVP_MD *
p2085
I494
sVstruct sk_buff_head
p2086
I4316
sVSSL3_RECORD_add_off
p2087
I428
sVptrace
p2088
I1102
sVstruct sctp_sock *
p2089
I6464
sVcodec_type
p2090
I5857
sVtrue
p2091
I2902
sVvector_fmul_add
p2092
I5882
sVkmem_cache_free
p2093
I4526
sV0644
p2094
I2100
sVstruct hdspm *
p2095
I3644
sVmtu
p2096
I3766
sVpkeys
p2097
I473
sVdrm_mode_object_find
p2098
I3075
sVmax_header_size
p2099
I6174
sV"%c"
p2100
I6356
sVinput_peaks
p2101
I5069
sVmap_page_into_agp
p2102
I2801
sVelem_data_size
p2103
I3690
sVirda_open_lsap
p2104
I1886
sVtruncate
p2105
I2367
sVdo_ioctl
p2106
I6005
sVkvm
p2107
I2231
sVupdate
p2108
I2399
sV"get_ctl: len %d < %u\u005cn"
p2109
I2668
sVTLS_MAX_VERSION
p2110
I818
sVclip_vcc
p2111
I1373
sVtruespeech_filters_merge
p2112
I5713
sVno_xattr
p2113
I6231
sVID3D11DeviceContext_Release
p2114
I5635
sVNLMSG_PUT
p2115
I1074
sVmov_write_hdlr_tag
p2116
I5864
sVmov_write_smhd_tag
p2117
I5873
sVuse_ref_buffer
p2118
I3504
sVssl3_finish_mac
p2119
I819
sVzone
p2120
I2162
sVw_index
p2121
I3834
sVtaforkblks
p2122
I5312
sV__ptrace_may_access
p2123
I1129
sVsockfd_lookup
p2124
I1847
sVreinit
p2125
I5565
sVi_mount
p2126
I5040
sVstruct nf_conn *
p2127
I1589
sVnb_codeblocks_height
p2128
I5791
sVentries
p2129
I3991
sVp
p2130
I20
sVcred_guard_mutex
p2131
I1127
sVtrace_kvm_msr_write_ex
p2132
I4756
sVorig_blocks
p2133
I3092
sVlocks_delete_global_locks
p2134
I6247
sVEVP_CTRL_TLS1_1_MULTIBLOCK_ENCRYPT
p2135
I255
sVPIDTYPE_PID
p2136
I6704
sVgso_type
p2137
I4626
sVSSL2_SSL_SESSION_ID_LENGTH
p2138
I566
sVserver_random
p2139
I636
sVstruct sgmap
p2140
I3795
sVip_vs_master_syncid
p2141
I3403
sV"Too small input buffer (%d bytes), need at least 32 bytes\u005cn"
p2142
I5949
sVTF_ACCESS
p2143
I6351
sVTIPC_ADDR_ID
p2144
I6165
sVHBA_MAX_SG_EMBEDDED
p2145
I3960
sVgroup_info
p2146
I3038
sVpstr
p2147
I1015
sVnetfid
p2148
I4538
sVNID_NEW
p2149
I6056
sVclips_ptr
p2150
I3070
sVsctp_addto_chunk
p2151
I2218
sVsmin_val
p2152
I4133
sVForInit
p2153
I302
sVif_inline_ext
p2154
I5298
sVvm_flags
p2155
I1395
sVAV_RL32
p2156
I5938
sVextra
p2157
I934
sVLISTEN_SUCCESS
p2158
I534
sVget_gadget_data
p2159
I3849
sVretcode
p2160
I2605
sVchannel_format
p2161
I3622
sVOSYNC_DATA
p2162
I4207
sVdata_size
p2163
I3545
sVstruct inet_ehash_bucket *
p2164
I4581
sVdlen
p2165
I775
sVf_path
p2166
I1613
sVstruct sockaddr_ec *
p2167
I1579
sVrequest_flags1
p2168
I3658
sVrequest_flags0
p2169
I3662
sVTLS1_get_version
p2170
I161
sVtcf_action
p2171
I2356
sVatomic_inc
p2172
I2592
sVxfs_sb_version_hassector
p2173
I2942
sVfiles_lock
p2174
I5140
sVbandno
p2175
I5800
sVwma_context
p2176
I5962
sVEXIT_QUALIFICATION
p2177
I1673
sVxfs_trans_ijoin
p2178
I5322
sVcan
p2179
I2113
sVSSL3_AL_WARNING
p2180
I423
sVIP_INC_STATS
p2181
I4902
sVPACKET_get_length_prefixed_1
p2182
I552
sVPrimaryExpression
p2183
I14
sVtty_paranoia_check
p2184
I5284
sVPACKET_get_length_prefixed_2
p2185
I549
sVspi
p2186
I2998
sVfind_vpid
p2187
I6383
sVssl3_cbc_copy_mac
p2188
I986
sVwrite
p2189
I1304
sV0x80
p2190
I118
sVmc_addr
p2191
I2035
sVSSL_AD_CLOSE_NOTIFY
p2192
I422
sVpmlen
p2193
I1013
sV0x89
p2194
I1066
sVproduct
p2195
I2701
sVtruespeech_synth
p2196
I3552
sV__copy_from_user
p2197
I1534
sVstruct scsi_request *
p2198
I3175
sVLINVFS_GET_VP
p2199
I5371
sVuint
p2200
I3394
sVbhv_vnode_t *
p2201
I5390
sV"set hw address: %pM\u005cn"
p2202
I3315
sVsrp_ctx
p2203
I694
sVconst struct sg_iovec *
p2204
I2691
sVaforkblks
p2205
I5313
sVxfs_iaccess
p2206
I5325
sVopts
p2207
I4743
sVBBSHIFT
p2208
I6692
sVifr_hwaddr
p2209
I3305
sVHDSPM_MAX_CHANNELS
p2210
I6540
sVSizeofOperand
p2211
I247
sVRTF_REJECT
p2212
I3221
sVclear_highpage
p2213
I1949
sVstruct ivtv *
p2214
I4326
sVconnect_indication
p2215
I3390
sVenum pid_type
p2216
I6706
sVmemcpy
p2217
I177
sVsk_detach_filter
p2218
I4090
sVstruct hdspm_config
p2219
I2156
sVrcv_tstamp
p2220
I5266
sVip4_u
p2221
I5488
sVINIT_LIST_HEAD
p2222
I5017
sV0x0165
p2223
I5941
sVcpu_to_le32
p2224
I3786
sVdown
p2225
I4557
sVMSG_OOB
p2226
I1558
sVHDSPM_TCO1_LTC_Format_MSB
p2227
I5075
sVSSL_AD_USER_CANCELLED
p2228
I445
sVCERT *
p2229
I963
sVOPENSSL_DH_MAX_MODULUS_BITS
p2230
I917
sVtstamp
p2231
I5118
sVEXT4_B2C
p2232
I4431
sVdst_release_immediate
p2233
I3146
sVeo
p2234
I3767
sVSSL_ST_READ_HEADER
p2235
I330
sVrun_list
p2236
I5018
sVek
p2237
I210
sVEVP_CIPHER_CTX_iv_length
p2238
I162
sVec
p2239
I755
sVBIO_CTRL_DGRAM_SET_PEEK_MODE
p2240
I976
sVreplay
p2241
I1331
sVex
p2242
I2136
sVHDSPM_TCO1_LTC_Format_LSB
p2243
I5074
sVep
p2244
I3279
sVes
p2245
I1464
sVer
p2246
I1496
sVhdspm_toggle_setting
p2247
I2159
sVuser_srbcmd
p2248
I3797
sVrt6i_idev
p2249
I3237
sVqdisc_root_sleeping_lock
p2250
I4114
sVprotinfo
p2251
I6181
sVcard_name
p2252
I3620
sVSSL2_PE_NO_CERTIFICATE
p2253
I574
sVrle
p2254
I3584
sVipv6_addr_any
p2255
I2182
sVargs
p2256
I4323
sVprepath
p2257
I6193
sVblksize
p2258
I2986
sVsg_tables
p2259
I2440
sVcard
p2260
I1383
sVfinish_wait
p2261
I4328
sVnum_precincts_x
p2262
I5797
sVPQ_64BIT *
p2263
I612
sVpalette_has_changed
p2264
I5748
sVMAX_WARN_ALERT_COUNT
p2265
I391
sVu32 [ SK_MEMINFO_VARS ]
p2266
I6688
sV512
p2267
I261
sV"linktype set to %d\u005cn"
p2268
I4092
sVsync_tco
p2269
I3632
sVrqstp
p2270
I3185
sVXFS_FSOP_GEOM_FLAGS_LOGV2
p2271
I2929
sVsighand
p2272
I4765
sVpag_buf_lock
p2273
I2580
sVring
p2274
I2766
sVsize
p2275
I709
sVfl_fasync
p2276
I5274
sVSSLerr
p2277
I860
sVbos_desc
p2278
I3882
sVaddr_hi
p2279
I3943
sVi_op
p2280
I2368
sVXFS_FSOP_GEOM_FLAGS_DALIGN
p2281
I2951
sVSSL_IS_DTLS
p2282
I254
sVstruct yamdrv_ioctl_mcs *
p2283
I4687
sVSSL_AD_ILLEGAL_PARAMETER
p2284
I868
sVstruct ext3_dir_entry_2 *
p2285
I3999
sVSSLv3_server_method
p2286
I821
sV'e'
p2287
I5854
sVatomic_load
p2288
I5564
sVTRANSFER_DIR_WRITE
p2289
I3668
sVnum_backlinks
p2290
I2679
sVrq_data_dir
p2291
I2378
sVstruct nfs_access_cache *
p2292
I5417
sVfrom_timer
p2293
I6502
sVj_running_transaction
p2294
I1657
sVAVMEDIA_TYPE_AUDIO
p2295
I5860
sVs_es
p2296
I1486
sVVM_ACCOUNT
p2297
I4120
sVcpuid
p2298
I4241
sVsctp_scope
p2299
I4718
sVtun_net_change_carrier
p2300
I6440
sVSOCK_ZEROCOPY
p2301
I3367
sV"EBML block data error\u005cn"
p2302
I5937
sVnfs_execute_ok
p2303
I5435
sVGET_CMDID
p2304
I2666
sVstruct user_aac_srb *
p2305
I6283
sV__pipe_lock
p2306
I1763
sVb_cp_transaction
p2307
I1659
sVTIOCMIWAIT
p2308
I6570
sVtransport_count
p2309
I4156
sVnd_tbl
p2310
I3218
sVssl_version
p2311
I297
sVstruct Qdisc_class_ops *
p2312
I4105
sVunsigned char [ 8 ]
p2313
I466
sVnverify
p2314
I1307
sVupdate_size
p2315
I5865
sVPTRACE_MODE_ATTACH_REALCREDS
p2316
I1915
sVshmem_i
p2317
I5237
sVJpeg2000ResLevel *
p2318
I5802
sVF_WRLCK
p2319
I4668
sV__portpair *
p2320
I2538
sVTCP_NAGLE_CORK
p2321
I4948
sV"dec %d\u005cn"
p2322
I939
sVshmem_acct_block
p2323
I1207
sVwaitqueue_active
p2324
I5289
sVlinbits
p2325
I3530
sVstruct ib_uverbs_poll_cq_resp
p2326
I1728
sVtmpclient
p2327
I541
sVdrm_device_t *
p2328
I6161
sVXFS_MOUNT_WSYNC
p2329
I5327
sVdst_new
p2330
I3556
sVbm_len
p2331
I3268
sVI_MUTEX_CHILD
p2332
I1923
sVMAX_GET_ARGLEN
p2333
I3419
sVconst struct sk_buff *
p2334
I2650
sVexpectfn
p2335
I1588
sVGUEST_CS_BASE
p2336
I2064
sVBN_CTX_new
p2337
I1002
sVFB_VBLANK_VSYNCING
p2338
I1940
sVstruct pmcraid_passthrough_ioctl_buffer *
p2339
I1535
sVfragments_tail
p2340
I1417
sVsport
p2341
I4593
sVcl_auth
p2342
I5401
sVEqualityExpression
p2343
I17
sVpalette
p2344
I2661
sV"<NULL>"
p2345
I77
sV3
p2346
I363
sVDMA_ERROR
p2347
I6110
sVreq_batch
p2348
I1686
sVIP_DEFRAG_CONNTRACK_IN
p2349
I2755
sVdma_pad_mask
p2350
I2386
sVSSL_R_DATA_BETWEEN_CCS_AND_FINISHED
p2351
I872
sVKERN_DEBUG
p2352
I3314
sVXFS_STATS_INC
p2353
I5216
sVeeprom_addr
p2354
I5032
sVioctx_list
p2355
I5011
sVsnd_kcontrol_t
p2356
I4636
sVmont
p2357
I914
sVopcode
p2358
I1223
sVpte_t *
p2359
I1390
sVSSL_OP_NON_EXPORT_FIRST
p2360
I823
sV"wav header size < 14"
p2361
I5929
sVASN1_INTEGER_to_BN
p2362
I1010
sVnr_pages
p2363
I1761
sVsg_assign_page
p2364
I6172
sVstruct ext4_dir_entry_tail *
p2365
I4474
sVadd_new_gdb
p2366
I1457
sVsess
p2367
I156
sVthin_lto
p2368
I4946
sVskey
p2369
I6182
sVstruct vda_context
p2370
I3508
sVconst unsigned int
p2371
I2279
sVpagevec_count
p2372
I2167
sVskb_frag_size_sub
p2373
I2006
sVsctp_inq_free
p2374
I4174
sVuser_name
p2375
I4484
sVhash_futex
p2376
I2814
sV__ip_vs_get_service_entries
p2377
I6018
sVdown_interruptible
p2378
I1870
sVdest_maxlen
p2379
I396
sVcache_access
p2380
I5418
sVnfsd4_decode_open_confirm
p2381
I1286
sVDTLS1_RECORD_DATA *
p2382
I816
sVUSB_SPEED_SUPER
p2383
I3870
sVAV_RL16
p2384
I5940
sVSNDRV_CTL_ELEM_TYPE_INTEGER64
p2385
I3680
sVput_task_struct
p2386
I2690
sVorig_rets
p2387
I5250
sVbg_flags
p2388
I1478
sVproto
p2389
I4619
sVFALLOC_FL_KEEP_SIZE
p2390
I4602
sVstruct aac_srb_reply
p2391
I3932
sVSSL_R_UNEXPECTED_RECORD
p2392
I878
sVfinish
p2393
I1356
sVDEFAULT_INITIAL_CREDIT
p2394
I2336
sVhuff_quad_vlc
p2395
I5620
sVstruct nfs_open_context *
p2396
I4659
sVblk_execute_rq
p2397
I3321
sVip6_datagram_recv_ctl
p2398
I5498
sV"USING TLSv1.2 HASH %s\u005cn"
p2399
I972
sVUSB_DIR_OUT
p2400
I3831
sVBIO_USER_MAPPED
p2401
I2383
sVvm_munmap
p2402
I4672
sVcharged
p2403
I4127
sVrb_insert_color
p2404
I2560
sVNID_md5_sha1
p2405
I664
sVuser_ns
p2406
I1911
sVHDSPM_MADI_OUTPUT_RMS_L
p2407
I5057
sVHDSPM_MADI_OUTPUT_RMS_H
p2408
I5058
sVch
p2409
I5542
sVgdb_off
p2410
I1470
sVspeed
p2411
I3871
sVVM_FAULT_MINOR
p2412
I4199
sVstruct
p2413
I6120
sVGENERAL_NAME *
p2414
I827
sVdoffset
p2415
I1959
sVTUN_TYPE_MASK
p2416
I4100
sVext3_journal_dirty_metadata
p2417
I4020
sVext4_get_group_desc
p2418
I5497
sV__blk_rq_unmap_user
p2419
I2391
sVbio_flagged
p2420
I2382
sVhandle_t *
p2421
I1488
sVaddr_type
p2422
I6468
sVsk_hash
p2423
I4587
sVstruct perf_config_item *
p2424
I2875
sVtask_user_ns
p2425
I1916
sVread
p2426
I1283
sVpsg
p2427
I3787
sVoverride_gid
p2428
I6220
sVstruct user_sgentry
p2429
I3026
sV"Linktype set failed because interface is up\u005cn"
p2430
I4101
sVdrm_core_check_feature
p2431
I3065
sVrd_flags
p2432
I2445
sVdev_put
p2433
I2400
sVinterleave
p2434
I251
sVt
p2435
I1743
sVoutput
p2436
I3225
sVYAM_MAGIC
p2437
I1719
sV_XBF_KMEM
p2438
I2585
sVbRequestType
p2439
I3827
sVip_vs_num_services
p2440
I6693
sVfl_ops
p2441
I5282
sVhsize
p2442
I1960
sVatomic_set
p2443
I2788
sVBLK_DEFAULT_SG_TIMEOUT
p2444
I3328
sVsk_get_meminfo
p2445
I5466
sVallocated
p2446
I6697
sVRTCF_BROADCAST
p2447
I1786
sVtwsk_unique
p2448
I2275
sVlong long
p2449
I6544
sVdrm_ioctl_desc_t *
p2450
I6159
sV"Buffer is too small (%d < %d).\u005cn"
p2451
I5743
sVmodelp
p2452
I5539
sVdump_stats
p2453
I4104
sVfl_block
p2454
I6250
sVstruct hdspm_peak_rms
p2455
I5047
sVsrc
p2456
I843
sVis_vm_hugetlb_page
p2457
I1146
sVproglen
p2458
I4796
sVsrr
p2459
I1798
sVMOVE_MEDIUM_TIMEOUT
p2460
I3336
sVspin_lock
p2461
I2581
sVTCP_REPAIR_OFF_NO_WP
p2462
I4999
sV"delayed_status count %d\u005cn"
p2463
I4393
sVsk_get_filter
p2464
I5464
sVstatusregister
p2465
I3625
sVinter_matrix
p2466
I5684
sVRTF_GATEWAY
p2467
I6472
sVsnd_kcontrol_t *
p2468
I1442
sVstart
p2469
I2764
sVreslevelno
p2470
I5803
sVlow
p2471
I3040
sVext4_iget
p2472
I4452
sVconst struct iphdr *
p2473
I3134
sVext4_test_inode_flag
p2474
I6253
sVcode_base
p2475
I4801
sVGFP_NOWAIT
p2476
I1947
sVpdev
p2477
I3778
sVIS_ENABLED
p2478
I6588
sV~DR7_GD
p2479
I4640
sVNLMSG_HDRLEN
p2480
I2541
sVMNT_PROPAGATION_MASK
p2481
I2203
sVmemcpy_fromiovec
p2482
I6128
sVIOC_IN
p2483
I2611
sVFIB_CONTEXT_FLAG_FASTRESP
p2484
I3950
sVtruespeech_apply_twopoint_filter
p2485
I5712
sVflow_flags
p2486
I3760
sVu64_to_user_ptr
p2487
I4702
sVDRIVER_MODESET
p2488
I3066
sV"val[%d][%d] = %d\u005cn"
p2489
I5586
sVfc_expires
p2490
I3200
sVVM_ACCT
p2491
I5239
sVchar [ 16 ]
p2492
I1056
sVHDSPM_MADI_OUTPUT_PEAK
p2493
I5066
sVfput
p2494
I4596
sVb_vendor_code
p2495
I3829
sVsctp_init_cause_fixed
p2496
I2503
sV"SSL alert number "
p2497
I1058
sVphys
p2498
I2711
sVcount_ext_prop
p2499
I4381
sVfhdr
p2500
I1397
sVkvm_rip_read
p2501
I2490
sVtrack
p2502
I5844
sVpeak
p2503
I5397
sVirda_sk
p2504
I2340
sVSSL3_RT_SEND_MAX_ENCRYPTED_OVERHEAD
p2505
I185
sVskb_recv_datagram
p2506
I1493
sVmatch_session
p2507
I4485
sVcap_issubset
p2508
I1114
sVset_pages_array_uc
p2509
I2794
sVVDBG
p2510
I4385
sVobits
p2511
I5898
sVMPADecodeContext *
p2512
I3527
sVxfs_trans_cancel
p2513
I5323
sVrequest_size
p2514
I1546
sVsctp_bind_addr_free
p2515
I4168
sVXFS_FSOP_GEOM_FLAGS_SHARED
p2516
I2953
sVexit_reason
p2517
I2059
sV__kill_pgrp_info
p2518
I6382
sVqdisc_restart
p2519
I6270
sVJOBCTL_TRAP_STOP
p2520
I4785
sVdelegreturn
p2521
I1322
sVulpq
p2522
I4178
sVinet_twsk_deschedule_put
p2523
I5201
sV~MNT_USER_SETTABLE_MASK
p2524
I2451
sVmnt_uid
p2525
I6204
sVhandle_userfault
p2526
I4367
sVWIDTH
p2527
I3564
sV--
p2528
I110
sVTYPE_MOV_FROM_DR
p2529
I6630
sVcFYI
p2530
I4569
sVTIOCM_CD
p2531
I6564
sVff_dwt_decode
p2532
I5813
sVstruct inet6_ifaddr *
p2533
I3727
sVipv6_raw_deliver
p2534
I6389
sVstruct file *
p2535
I1070
sVXFS_ATTR_FORK
p2536
I5315
sVsb_flags
p2537
I2450
sVext4_set_inode_flag
p2538
I4470
sVnetlink_unicast
p2539
I5969
sVtxtime
p2540
I3370
sVget_bits_count
p2541
I3511
sVBIO_CTRL_DGRAM_SCTP_GET_RCVINFO
p2542
I616
sVexp_eoc
p2543
I905
sV"POST "
p2544
I367
sVf_mapping
p2545
I1919
sVmutex_lock
p2546
I1764
sVinet_frag_put
p2547
I6280
sVrtblocks
p2548
I2921
sVstruct econet_opt *
p2549
I3768
sVtruesize
p2550
I1979
sVIPV6_MAXPLEN
p2551
I1424
sVTCP_SEND_QUEUE
p2552
I4958
sVAVERROR_INVALIDDATA
p2553
I6605
sVmpeg1_aspect
p2554
I5692
sVAVDictionaryEntry *
p2555
I5513
sVnfs4_set_lock_state
p2556
I4661
sVBE16
p2557
I1359
sVsx_offset
p2558
I5343
sVCOMMAND_SIZE
p2559
I1237
sVbcm_read_proc
p2560
I2403
sVsrbfib
p2561
I3029
sVstreamon
p2562
I5572
sVstruct aac_native_hba *
p2563
I3970
sVEC_KEY_free
p2564
I706
sV"Could not unmap OpenCL buffer: %s\u005cn"
p2565
I3602
sVvcpu_put_rsp_rip
p2566
I2049
sVavio_read
p2567
I5646
sVfamily
p2568
I1573
sVskb_peek
p2569
I2868
sVsnd_ctl_elem_init_enum_names
p2570
I3688
sVvideo_context
p2571
I5632
sVivtvfb_prep_frame
p2572
I4322
sVstruct b43legacy_dmadesc32 *
p2573
I6277
sVext4_journal_stop
p2574
I1477
sVtls1_lookup_sigalg
p2575
I596
sVscsi_cmd
p2576
I3666
sVdescriptors
p2577
I3878
sVvideo_offsets_count
p2578
I5663
sVext4_blocks_count
p2579
I4427
sVudp_send_skb
p2580
I3751
sVVCPU_REGS_RCX
p2581
I2497
sVSSL_ST_CONNECT
p2582
I774
sVptrace_trapping_sleep_fn
p2583
I4777
sVSL
p2584
I6338
sVIncDec
p2585
I59
sVGetXid
p2586
I6626
sVAVFrame *
p2587
I5717
sVstruct compat_video_spu_palette __user *
p2588
I2659
sVstruct ip_vs_service *
p2589
I6016
sVwc_flags
p2590
I2123
sVTFO_CLIENT_ENABLE
p2591
I4970
sVxfs_iunlock
p2592
I5331
sVcan_id
p2593
I4825
sVsnd_ctl_free_one
p2594
I3701
sVfp
p2595
I4791
sVfq
p2596
I1415
sVbyte_len
p2597
I2128
sVCAPI_RESP
p2598
I6050
sVserver_ino
p2599
I6221
sVsg_list
p2600
I3785
sVOP_ILLEGAL
p2601
I1329
sVfb
p2602
I3062
sVfc
p2603
I2474
sVfd
p2604
I2663
sVfh
p2605
I6126
sVfl
p2606
I1782
sVfn
p2607
I2872
sVshmem_free_blocks
p2608
I4200
sVa
p2609
I831
sVIPSTATS_MIB_INUNKNOWNPROTOS
p2610
I4607
sVol_tx_spec_no_free
p2611
I5956
sVAV_NOPTS_VALUE
p2612
I5823
sV)
p2613
I959
sVasn1_item_ex_d2i
p2614
I891
sVinlink
p2615
I5576
sV"group set to %d\u005cn"
p2616
I4093
sVvalid_devcond
p2617
I2658
sVstruct proc_maps_private *
p2618
I2687
sV"aacraid: upsg->sg[%d].count=%u>%u\u005cn"
p2619
I3972
sVvn_bhv_lookup
p2620
I5350
sVstruct nat_entry *
p2621
I4519
sVLAST_NFS4_OP
p2622
I3181
sVPKCS8_NEG_PRIVKEY
p2623
I743
sVOPENSSL_DH_FIPS_MIN_MODULUS_BITS
p2624
I923
sVMNT_LOCK_NOEXEC
p2625
I2454
sVDSA *
p2626
I780
sVSNDRV_CTL_ELEM_ACCESS_TLV_READWRITE
p2627
I3703
sVEIO
p2628
I1913
sVdevnull
p2629
I559
sVyi
p2630
I1696
sVym
p2631
I4681
sVsctp_make_op_error_fixed
p2632
I2504
sVLED_B2_DATA
p2633
I4262
sVstruct msghdr *
p2634
I1497
sVchange_mount_flags
p2635
I2206
sVb_transaction
p2636
I1658
sVyp
p2637
I1700
sVmov_write_hmhd_tag
p2638
I5866
sVIP_CT_DIR_REPLY
p2639
I1592
sVcomposite_setup_complete
p2640
I3842
sVifp
p2641
I3721
sVifr
p2642
I1693
sVshmem_swp_set
p2643
I4193
sVfpu_fpregs_owner_ctx
p2644
I4632
sVAV_LOG_INFO
p2645
I5890
sVmac_len
p2646
I1962
sVstruct icmphdr
p2647
I5162
sVtv_sec
p2648
I5356
sVevent
p2649
I1072
sVbuffers
p2650
I1759
sV7
p2651
I250
sVsctp_sk
p2652
I6456
sVip_hdr
p2653
I1569
sV__skb_push
p2654
I2000
sVMAX_DEFRAG_SIZE
p2655
I3086
sVtty_hung_up_p
p2656
I3008
sVciphers
p2657
I496
sVpub
p2658
I6100
sVbase
p2659
I1750
sVput
p2660
I3906
sVext4_mb_add_groupinfo
p2661
I1448
sVCIFS_MOUNT_SERVER_INUM
p2662
I6192
sVfc_src
p2663
I3212
sVssl23_get_server_method
p2664
I347
sVfl_ip_sport
p2665
I4884
sVinet6_ehashfn
p2666
I2281
sVLutContext *
p2667
I5615
sVv4
p2668
I3291
sVIFF_LOOPBACK
p2669
I2261
sVnfsd4_decode_release_lockowner
p2670
I1276
sVN_TTY_BUF_SIZE
p2671
I5287
sVirda_disconnect_indication
p2672
I3387
sVPH_DATA_E
p2673
I4272
sVstruct aac_srb
p2674
I3794
sVstruct b43_rxhdr_fw4 *
p2675
I2771
sVRCR_GOOD
p2676
I5245
sVulen
p2677
I1774
sVold_len
p2678
I1141
sVstation
p2679
I3645
sVstruct tcp_cookie_values *
p2680
I3454
sVtty_unlock
p2681
I6274
sVext3_rec_len_to_disk
p2682
I4028
sV"video offset %d: %#x\u005cn"
p2683
I5665
sVtag_11_contents_size
p2684
I1157
sVIS_UDPLITE
p2685
I4904
sVstruct virtio_net_hdr
p2686
I4103
sVASN1_template_free
p2687
I907
sVpit_state
p2688
I2232
sVtruespeech_save_prevvec
p2689
I5711
sVsign
p2690
I5534
sVtfp
p2691
I5370
sVssl3_get_record
p2692
I404
sVip_summed
p2693
I1413
sVbytestream_get_be24
p2694
I5943
sVrlayer
p2695
I387
sVadd_frag_mem_limit
p2696
I5124
sVstruct xfs_perag *
p2697
I2596
sVcookie_len
p2698
I282
sVkill_pid_info
p2699
I6385
sVstruct perf_config_section *
p2700
I6267
sVRTN_LOCAL
p2701
I3284
sVmutex_init
p2702
I5022
sVca_rtt_us
p2703
I5143
sVmov_write_dinf_tag
p2704
I5863
sVsrcu_read_unlock
p2705
I5257
sVSSL_kDHE
p2706
I730
sVmipmap
p2707
I5760
sVCallee
p2708
I37
sVPACKET_forward
p2709
I547
sVcurrent_user_ns
p2710
I3742
sVlist_add
p2711
I6249
sVSSL_kDHr
p2712
I677
sVPACKET_get_sub_packet
p2713
I531
sVclear
p2714
I135
sVSSL_kDHd
p2715
I678
sVb_next_transaction
p2716
I5437
sVXFS_ILOCK_EXCL
p2717
I5346
sVtx_frame
p2718
I5957
sVstat_lock
p2719
I4194
sVbnep_get_conninfo
p2720
I6649
sVSSL_set_options
p2721
I926
sVstruct cifsFileInfo *
p2722
I1552
sV'\u005c0'
p2723
I2849
sVFMODE_WRITE
p2724
I2412
sVrxoffset
p2725
I6091
sVclear_buffer_req
p2726
I5456
sVPACKET_data
p2727
I511
sV"4294967296 65635"
p2728
I1607
sVIS_SWAPFILE
p2729
I3091
sVrenegotiate
p2730
I160
sVMNT_LOCK_READONLY
p2731
I2460
sVhas_data
p2732
I1257
sVIFF_NOFILTER
p2733
I3737
sVext4_append
p2734
I4009
sVusg64
p2735
I3944
sV"%s(%p)\u005cn"
p2736
I4817
sVmax_cert_list
p2737
I502
sVstruct flowi *
p2738
I2479
sVinet6_twsk
p2739
I2537
sVstruct nfsd4_minorversion_ops *
p2740
I1339
sVb_rbnode
p2741
I2561
sVip_cmsg_send
p2742
I1799
sVFB_VBLANK_HAVE_VSYNC
p2743
I1943
sVav_image_copy_plane
p2744
I5749
sVseq64be
p2745
I462
sVSSL3_BUFFER_get_left
p2746
I432
sVcmdlen
p2747
I1220
sVegid
p2748
I1112
sVset_page_dirty
p2749
I1948
sVx
p2750
I591
sVsock_rcvtimeo
p2751
I2867
sVup_native
p2752
I2839
sVstruct user_element
p2753
I3695
sVs_id
p2754
I5408
sVclose
p2755
I1320
sVfl_type
p2756
I4666
sVEXT4_BG_INODE_ZEROED
p2757
I1479
sVIP_VS_BASE_CTL
p2758
I3396
sV__alloc_skb
p2759
I2001
sVstruct iso_directory_record *
p2760
I6358
sVXFS_FSOP_GEOM_FLAGS_IALIGN
p2761
I2949
sVEXT3_SB
p2762
I3990
sVlist_del_rcu
p2763
I4167
sVSSL_AD_HANDSHAKE_FAILURE
p2764
I873
sVtask_pid_vnr
p2765
I3109
sVis_native_device
p2766
I3947
sVrt6_bind_neighbour
p2767
I3252
sVBN_bin2bn
p2768
I673
sVstruct udp_opt *
p2769
I4900
sVFLAC_SUBFRAME_LPC
p2770
I5905
sVfc_metric
p2771
I3191
sVwbuf_len
p2772
I198
sVstruct aunhdr
p2773
I3709
sVXFS_ICHANGE_LOG_RES
p2774
I5317
sVvirt_to_gart
p2775
I2806
sVtun_set_ebpf
p2776
I6432
sVget_futex_value_locked
p2777
I2821
sVheader
p2778
I3816
sVin6_dev_put
p2779
I6488
sVVM_SHARED
p2780
I1394
sVICMPV6_PARAMPROB
p2781
I2890
sVbuf_
p2782
I227
sVctrl_sock
p2783
I2710
sVstamp
p2784
I5117
sVSSL3_BUFFER *
p2785
I172
sVAAC_MAX_BUSES
p2786
I3919
sVdestructor
p2787
I3053
sVempty_record_count
p2788
I1051
sVMBALLOC
p2789
I5244
sVinet_addr_type
p2790
I5484
sVuint32_t * *
p2791
I3608
sVgid_lte
p2792
I3039
sVstruct work_struct *
p2793
I2254
sVTCP_CONGESTION
p2794
I2393
sV_dma_getnextrxp
p2795
I6086
sVN
p2796
I695
sVSHMEM_SB
p2797
I1193
sVSK_MEMINFO_VARS
p2798
I6689
sVBE32
p2799
I3463
sVsctp_make_op_error_limited
p2800
I2505
sVCIFS_I
p2801
I4534
sVDTLS_ANY_VERSION
p2802
I289
sVext4_has_feature_sparse_super
p2803
I4459
sVkeepalive_intvl
p2804
I4950
sVskb_network_header_len
p2805
I1965
sVblkbits
p2806
I3095
sVreadb
p2807
I5033
sV10000
p2808
I1545
sVgeneric_write_sync
p2809
I4213
sVreadl
p2810
I5056
sVpgrescued
p2811
I5105
sVwait_chldexit
p2812
I4769
sVready
p2813
I3902
sVaspect_ratio_info
p2814
I5693
sVskb_end_offset
p2815
I2007
sVinfo_length
p2816
I3998
sVip6_mc_input
p2817
I3230
sVEXT4_FEATURE_COMPAT_RESIZE_INODE
p2818
I4429
sVstruct sctp_association *
p2819
I1162
sVipv4_is_multicast
p2820
I1819
sVnb_components
p2821
I5612
sVRTCF_LOCAL
p2822
I5170
sVidle_timeout
p2823
I4302
sVip_vs_master_mcast_ifn
p2824
I3405
sVuser
p2825
I1767
sVMKDEV
p2826
I6345
sVXFS_FSOP_GEOM_FLAGS_ATTR2
p2827
I2964
sVsha1
p2828
I644
sVdonor_eof
p2829
I6256
sV__skb_trim
p2830
I6087
sVPT_PTRACED
p2831
I1103
sVmax_value_counts
p2832
I3673
sVKVM_GET_SUPPORTED_CPUID
p2833
I1349
sVBUF_MEM_grow_clean
p2834
I107
sVCAP_SYS_RESOURCE
p2835
I1768
sVhdspm_config_info_t
p2836
I2419
sVDTLS_VERSION_LT
p2837
I556
sVstruct usb_request *
p2838
I3897
sVmemcg
p2839
I4351
sVsctp_transport_dst_check
p2840
I3178
sVip6_dst_alloc
p2841
I3232
sVeFrameType
p2842
I5958
sVip_options_compile
p2843
I6403
sVinit_waitqueue_head
p2844
I5020
sVnew_session
p2845
I274
sVENOLCK
p2846
I6632
sVmcfg
p2847
I3417
sVautosync_sample_rate
p2848
I2149
sVspin_lock_irqsave
p2849
I4296
sVPTRACE_SEIZE
p2850
I1909
sVhandshake_fragment
p2851
I397
sVinet_csk_reset_keepalive_timer
p2852
I4936
sVfull_frame
p2853
I5088
sVSIOCYAMSMCS
p2854
I4689
sVsk_prot
p2855
I4584
sVSCTP_ST_OTHER
p2856
I3280
sVup_write
p2857
I2903
sVxfs_trans_reserve
p2858
I5316
sVips
p2859
I5349
sVstruct user_sgmap64 *
p2860
I3796
sVsignal
p2861
I1128
sVgroup_id
p2862
I2682
sVASN1_OCTET_STRING_cmp
p2863
I832
sV__jbd2_journal_remove_checkpoint
p2864
I5448
sVSSL3_RECORD_set_read
p2865
I864
sVossl_assert
p2866
I811
sVsrb_status
p2867
I3930
sVUSB_COMP_EP0_OS_DESC_BUFSIZ
p2868
I3859
sVBUFFER_TRACE
p2869
I4478
sVinet_recv_error
p2870
I5199
sVvoid __user *
p2871
I1438
sVuserbuf
p2872
I2325
sVhad_dst
p2873
I2194
sV8192
p2874
I6517
sVrun
p2875
I4642
sVtx_flags
p2876
I1816
sV__be32
p2877
I1823
sVpTcon
p2878
I4537
sVstep
p2879
I5601
sVlinger2
p2880
I5267
sVDPRINTK
p2881
I4319
sVSSL3_RECORD *
p2882
I188
sVexecute_ok
p2883
I5409
sVidx
p2884
I280
sVsync_mutex
p2885
I6028
sVstruct iphdr *
p2886
I1532
sVssl_get_ciphers_by_id
p2887
I587
sVstruct kioctx *
p2888
I1689
sVXFS_DIFLAG_REALTIME
p2889
I5338
sVhcount
p2890
I1937
sVblock
p2891
I3986
sVBIO_write
p2892
I521
sVhwdev
p2893
I5624
sV"REC value (%d) exceeds NUM value (%d)"
p2894
I6262
sVbuffer_jbd
p2895
I1652
sVSSL_OP_NO_DTLSv1
p2896
I303
sVsk_incoming_cpu
p2897
I3364
sVCAPIMSG_MSGID
p2898
I2734
sVip6_datagram_recv_specific_ctl
p2899
I5187
sVopcnt
p2900
I1312
sVtask_count
p2901
I2824
sVstrdup
p2902
I3099
sVinfo
p2903
I1169
sVradix_tree_preload
p2904
I1955
sVfde
p2905
I4000
sVsnd_ctl_get_ioff
p2906
I3674
sVdeath_row
p2907
I2298
sVSSL_R_TOO_MANY_WARN_ALERTS
p2908
I875
sVstruct ext4_dir_entry_tail
p2909
I4041
sVSSL2_MIN_CHALLENGE_LENGTH
p2910
I54
sVsb_logsectsize
p2911
I2941
sVTCA_MIRRED_PAD
p2912
I4856
sVip6_route_info_create
p2913
I3144
sVHBA_IU_TYPE_SCSI_CMD_REQ
p2914
I3941
sVhtonl
p2915
I3713
sVnext_rip
p2916
I2489
sVipfragok
p2917
I1253
sVhtons
p2918
I1400
sV"Corrupt filesystem"
p2919
I6622
sVsb_sectsize
p2920
I2926
sVperf_etc_perfconfig
p2921
I6315
sVapplication
p2922
I6041
sVSSL_HANDSHAKE_MAC_DEFAULT
p2923
I622
sVTF
p2924
I6342
sVactual_fibsize64
p2925
I3798
sVuser_reply
p2926
I3968
sVicsk_backoff
p2927
I5158
sVsg_init_table
p2928
I6173
sVBIO_should_retry
p2929
I955
sVCHECKSUM_PARTIAL
p2930
I1988
sVnum_emulated_msrs
p2931
I4255
sVEVP_MD_CTX_size
p2932
I153
sVsvm
p2933
I2487
sVe
p2934
I112
sVsub_id
p2935
I5675
sVsvc
p2936
I6011
sVnamelen
p2937
I4006
sVdepth
p2938
I899
sVDRM_AUTH
p2939
I2615
sVBN_clear_free
p2940
I792
sV"Frame is too small (%d).\u005cn"
p2941
I5763
sVreconfigure_super
p2942
I2477
sVRpzaContext *
p2943
I5616
sVinodesize
p2944
I2915
sVvm_unacct_memory
p2945
I5238
sVkcalloc
p2946
I2446
sVcmd_flags
p2947
I2377
sVirda_connect_confirm
p2948
I3391
sVsin_port
p2949
I1804
sVgb
p2950
I3512
sVPT_ATTACHED
p2951
I1118
sVpart_end
p2952
I5901
sVlogstart
p2953
I2917
sVsrc_buf
p2954
I3592
sVdev_get_by_index_rcu
p2955
I2753
sVtcp_sk
p2956
I3441
sVAAC_OPT_NEW_COMM
p2957
I3781
sVwma_handle
p2958
I5964
sVfl_next
p2959
I5273
sVmd5_parse
p2960
I4934
sVS32_MIN
p2961
I4142
sVnb_streams
p2962
I5939
sVVOP_TOSS_PAGES
p2963
I5374
sVoptlen
p2964
I1853
sVkuid_t
p2965
I3747
sVReturnStatement
p2966
I35
sVipv6_addr_prefix
p2967
I3192
sVput_compat_shminfo
p2968
I4881
sValgorithm_auth
p2969
I704
sVextradata
p2970
I3485
sVsk_can_busy_loop
p2971
I3059
sVsk_localroute
p2972
I1795
sVtmpbuf
p2973
I807
sVrpc_lookup_cred_nonblock
p2974
I5422
sV"ipv6_hop_jumbo: wrong jumbo opt length/alignment %d\u005cn"
p2975
I4759
sVstruct ib_wc *
p2976
I2132
sVopaque
p2977
I5557
sVcdy
p2978
I5781
sV__putback_lru_fast_prepare
p2979
I5104
sVses_count
p2980
I4483
sVstruct in6_addr
p2981
I3726
sVICSK_ACK_PUSHED
p2982
I4928
sVskb_rb_first
p2983
I3287
sVold_push
p2984
I4307
sVEVP_GCM_TLS_EXPLICIT_IV_LEN
p2985
I178
sVtest_opt
p2986
I5243
sVold_pop
p2987
I4305
sVswp_entry_t
p2988
I1215
sVis_strictroute
p2989
I1797
sVwake_futex
p2990
I6155
sVframe_pred_frame_dct
p2991
I5701
sVhead_len
p2992
I5161
sVRelationalExpression
p2993
I6
sVLISTENING
p2994
I4165
sVSET_LINKS
p2995
I5474
sVssl_accept
p2996
I348
sVsb_rextents
p2997
I2934
sVpit_timer
p2998
I2528
sVdo_uncompress
p2999
I950
sV"nf_ct_dccp: reserved packet type "
p3000
I4734
sVs_blocksize
p3001
I4004
sVDRM_IOCTL_NR
p3002
I2602
sVxclass
p3003
I102
sVfc_nlinfo
p3004
I3143
sVsctp_auth_key_put
p3005
I4154
sVJpeg2000Band *
p3006
I5799
sV'c'
p3007
I5849
sVirias_delete_object
p3008
I1885
sVBN_MONT_CTX *
p3009
I1042
sVpeer_name
p3010
I1516
sVXFS_SB_VERSION_HASDIRV2
p3011
I3168
sVskb_copy_and_csum_bits
p3012
I1971
sVpaletted
p3013
I5718
sVBN_add
p3014
I799
sVcopylen
p3015
I2664
sVEXT4_HAS_RO_COMPAT_FEATURE
p3016
I4036
sVXFS_SWAP_EXTENTS
p3017
I5388
sVDRM_COMMAND_BASE
p3018
I2625
sVstruct aac_hba_resp *
p3019
I3969
sVsupp_feat
p3020
I4742
sVAdditiveExpression
p3021
I29
sVretries
p3022
I3329
sVstruct yamdrv_ioctl_mcs
p3023
I4682
sVconst EVP_CIPHER *
p3024
I493
sVcontrols_rwsem
p3025
I2904
sVmemory_order_acq_rel
p3026
I5567
sVYAM_MAXHOLDDLY
p3027
I6644
sVcontrol
p3028
I1443
sVTCP_NO_QUEUE
p3029
I4959
sVOPENSSL_cleanse
p3030
I491
sVlinks
p3031
I2677
sVsg_count
p3032
I3913
sVconst struct sock *
p3033
I2195
sVget_user
p3034
I1222
sVshort *
p3035
I5709
sVPOLL_IN
p3036
I6150
sVstruct serial_struct *
p3037
I5234
sVIPSTATS_MIB_INHDRERRORS
p3038
I1890
sVDR6_FIXED_1
p3039
I4917
sVJBUFFER_TRACE
p3040
I5441
sVEXT4_INODE_INDEX
p3041
I4471
sVstruct gendisk *
p3042
I1240
sVtun_debug
p3043
I3313
sVext3_rec_len_from_disk
p3044
I4001
sV'\u005cn'
p3045
I941
sVkvm_skip_emulated_instruction
p3046
I4649
sV't'
p3047
I5847
sV__FUNCTION__
p3048
I4231
sVset_buffer_freed
p3049
I5450
sVstruct sockaddr_storage
p3050
I553
sVmmap_size
p3051
I4674
sVbt_meta_sectormask
p3052
I5214
sVxb_get_locked
p3053
I5217
sVaio_free_ring
p3054
I2090
sVnetlink_skb_clone
p3055
I2545
sVXFS_FSB_TO_BB
p3056
I3275
sVipv6_only_sock
p3057
I1749
sV__f_setown
p3058
I5291
sVSOCK_DBG
p3059
I3358
sV~0x7
p3060
I1409
sVrange_length
p3061
I2590
sVdrm_vblank_post_modeset
p3062
I3253
sVSSL_R_UNKNOWN_ALERT_TYPE
p3063
I869
sVbpf_tell_extensions
p3064
I3362
sVauth
p3065
I1256
sVDST_HOST
p3066
I3226
sVmsg_iov
p3067
I1560
sVBN_with_flags
p3068
I919
sVhbacmd
p3069
I3914
sV0x0000ffff
p3070
I4383
sVxfs_inval_cached_trace
p3071
I5382
sVnreslevels2decode
p3072
I5805
sVs_inodes_count
p3073
I4430
sVip6_frags
p3074
I5127
sVmode
p3075
I164
sVnlmsg_hdr
p3076
I2543
sVaspect_ratio
p3077
I5676
sVEADDRNOTAVAIL
p3078
I6627
sVpmcraid_get_free_cmd
p3079
I3653
sVflush_dcache_page
p3080
I1203
sVnfsd4_decode_verify
p3081
I1301
sV0UL
p3082
I5131
sVinputs
p3083
I3471
sVsock_recv_timestamp
p3084
I5190
sVchunk
p3085
I92
sVstruct vm_area_struct * *
p3086
I2763
sVset_mount_attributes
p3087
I2471
sVdelta_munlocked
p3088
I2165
sVdirblocksize
p3089
I2975
sVos_desc_config
p3090
I3825
sVupdate_mmu_cache
p3091
I4357
sVdo_remount_sb
p3092
I2200
sVset_memory_array_uc
p3093
I2804
sVecn
p3094
I5125
sVstruct capi_ctr *
p3095
I2742
sVsin6_scope_id
p3096
I5177
sVext4_mb_put_buddy_cache_lock
p3097
I4437
sVd2i_ASN1_INTEGER
p3098
I1017
sVecx
p3099
I2496
sVHDSPM_TCO1_LTC_Input_valid
p3100
I5073
sVi_iocore
p3101
I5336
sVtimer
p3102
I2523
sVset_config
p3103
I4384
sVfind_vma
p3104
I1145
sV"Invalid sample rate: %d\u005cn"
p3105
I5925
sVtcpct_cookie_desired
p3106
I3444
sVtimeo
p3107
I2865
sVstruct hdspm_mixer
p3108
I5097
sVpte_mkwrite
p3109
I4345
sVmap_data
p3110
I2389
sVstruct ip_vs_get_services *
p3111
I6021
sVREMOVE_LINKS
p3112
I5473
sVconst void *
p3113
I226
sVnew_cipher
p3114
I624
sV"Error: wrong config key-value pair %s=%s\u005cn"
p3115
I6263
sVMAX_USER_CONTROLS
p3116
I1384
sVint [ 4 ]
p3117
I6509
sVifr_name
p3118
I3083
sVBITS_PER_PAGE
p3119
I2244
sVmant2_cnt
p3120
I5552
sVunlock_page
p3121
I1201
sVreal_size
p3122
I6367
sVip6_frag_mem
p3123
I6292
sVext4_handle_dirty_dirent_node
p3124
I4475
sVdata_length
p3125
I3973
sVd2i_ASN1_UINTEGER
p3126
I1016
sVnext_frag
p3127
I6505
sVdirect_io
p3128
I6224
sVPACKET_get_net_2
p3129
I529
sVPACKET_get_net_3
p3130
I526
sVrsa
p3131
I652
sV__be16
p3132
I1822
sVR
p3133
I5606
sVset_peek_off
p3134
I5471
sVav_strdup
p3135
I3474
sVconnect_confirm
p3136
I3392
sVreserve_backup_gdb
p3137
I1461
sVclear_buffer_unwritten
p3138
I5451
sVCIFSMaxBufSize
p3139
I6215
sVCRYPTO_LOCK_DH
p3140
I915
sVVN_CACHED
p3141
I5373
sVHPEE_MAX_LENGTH
p3142
I2137
sVSCTP_UNCONFIRMED
p3143
I4720
sVOMAX_SB_LEN
p3144
I3323
sVIS_NOQUOTA
p3145
I6255
sVclockid
p3146
I3374
sVmutex_lock_interruptible
p3147
I1131
sVDH_FLAG_CACHE_MONT_P
p3148
I916
sVMSG_DONTWAIT
p3149
I1495
sVavio_rl16
p3150
I5927
sV0x08
p3151
I3464
sVtcpct_used
p3152
I3447
sV0x00
p3153
I371
sV0x01
p3154
I3862
sV0x02
p3155
I372
sVinstance
p3156
I2338
sVconst struct iov_iter *
p3157
I2692
sVkvm_require_dr
p3158
I1668
sVARPHRD_CAN
p3159
I2109
sVDSA_FLAG_NO_EXP_CONSTTIME
p3160
I961
sVrt6_clean_expires
p3161
I3250
sVexpires
p3162
I3251
sVregs
p3163
I1341
sValloc_skb
p3164
I1993
sVconnected
p3165
I1790
sV0x0E
p3166
I1360
sV0x0A
p3167
I4403
sV0x0C
p3168
I3462
sVtruespeech_read_frame
p3169
I5715
sVavpkt
p3170
I3543
sVlru_cache_add_active_or_unevictable
p3171
I4349
sVfcnt
p3172
I6061
sVstruct flowi6 *
p3173
I2175
sV0x0f
p3174
I3538
sVEVP_CIPHER_flags
p3175
I225
sVthis_cpu_read_stable
p3176
I4631
sVchallenge_length
p3177
I34
sVff_vector_fmul_reverse_altivec
p3178
I5879
sVs_freeinodes_counter
p3179
I4418
sVrgb_pix_fmts
p3180
I5887
sV(
p3181
I6179
sVlpc_coeff_precision
p3182
I5896
sVDEBUG_REG_ACCESS_REG
p3183
I6629
sVbpf_jit_enable
p3184
I6533
sVstruct inet_timewait_sock *
p3185
I2301
sVmov_write_gmhd_tag
p3186
I5846
sVin6_dev_hold
p3187
I6489
sVtls1_check_curve
p3188
I701
sVwsize
p3189
I6209
sVsrvr_ecpoint
p3190
I716
sVpercpu_ref_init
p3191
I2091
sV128
p3192
I2631
sVcinfo
p3193
I1856
sVtask_sid_subj
p3194
I6055
sVudpdest
p3195
I3711
sVtcp_repair_options_est
p3196
I4952
sVj
p3197
I354
sV"Compressed Buffer is too small (%d < %d).\u005cn"
p3198
I5756
sVJBD2_ABORT
p3199
I2508
sVpitem *
p3200
I319
sVBLOCKS_PER_PAGE
p3201
I1190
sVstats
p3202
I4057
sVi_uid
p3203
I6330
sVBIO_set_retry_read
p3204
I856
sVstate
p3205
I13
sVS_ISGID
p3206
I2857
sVlun
p3207
I3810
sVkref_put
p3208
I4944
sVSSL3_MT_FINISHED
p3209
I563
sVstruct sctp_chunk *
p3210
I2224
sVkey
p3211
I2873
sVRTA_PUT
p3212
I2350
sVpermutated
p3213
I5536
sVsk_no_check_tx
p3214
I3363
sVmmput
p3215
I6246
sVSSL_OP_ALLOW_UNSAFE_LEGACY_RENEGOTIATION
p3216
I417
sVxfs_off_t
p3217
I5212
sVRCR_BAD
p3218
I3436
sVENXIO
p3219
I6700
sVd_len
p3220
I357
sVAAC_DEVTYPE_NATIVE_RAW
p3221
I3921
sVsent_messages
p3222
I813
sVBN_mod_exp_mont
p3223
I786
sV__mark_reg32_known
p3224
I4151
sV__pin_page_atomic
p3225
I6546
sVnotsent_lowat
p3226
I4964
sVmatchlen
p3227
I1594
sVtex_data
p3228
I5765
sVvcc_process_recv_queue
p3229
I4726
sVusername
p3230
I3730
sV__sk_dst_get
p3231
I6454
sVkmem_alloc
p3232
I2415
sVstruct snd_hwdep *
p3233
I2157
sVcontroller
p3234
I6048
sVmsgnum
p3235
I2733
sVstruct ktermios *
p3236
I5477
sV~TCP_NAGLE_OFF
p3237
I4949
sVPF_KTHREAD
p3238
I1132
sVsnd_ctl_remove
p3239
I3912
sVcan_ifindex
p3240
I2108
sVmem_cgroup_newpage_charge
p3241
I2078
sVstruct ext4_super_block *
p3242
I1485
sVlist_is_singular
p3243
I4373
sVnr_events
p3244
I1681
sVdev_low
p3245
I6343
sVdownld_comp_required
p3246
I6580
sVbcm_proc_show
p3247
I2115
sVint64_t
p3248
I5645
sVxfrm6_policy_check
p3249
I2885
sVstruct drm_modeset_ctl *
p3250
I4290
sVPIDMAP_ENTRIES
p3251
I2250
sVIP_VS_STATE_BACKUP
p3252
I3398
sVdi_aformat
p3253
I5347
sVipv6_dev_get_saddr
p3254
I2480
sV"rsize %d too large, using MaxBufSize"
p3255
I6233
sVhlen
p3256
I6136
sV"minf"
p3257
I5870
sVnumid
p3258
I2750
sV'm'
p3259
I5848
sVadd_to_page_cache_locked
p3260
I1946
sVnum_msrs_to_save
p3261
I4246
sVnfsd4_decode_open_downgrade
p3262
I1297
sVIS_RDONLY
p3263
I2426
sVnoblock
p3264
I1556
sVs32_min_value
p3265
I4134
sVTUN_FEATURES
p3266
I6420
sVmax_reqs
p3267
I1690
sVstruct group_info *
p3268
I3045
sVcomposite_ep0_queue
p3269
I3850
sVstruct tcf_defact *
p3270
I4850
sVstruct mem_cgroup *
p3271
I4354
sVsock_owned_by_user
p3272
I1741
sVtransaction
p3273
I1655
sVirias_new_object
p3274
I1878
sVi
p3275
I8
sVmsr_io
p3276
I4256
sVrxopt
p3277
I5192
sVis_rgb
p3278
I5609
sVSOCK_BROADCAST
p3279
I1789
sVMSG_MORE
p3280
I1779
sVbuf_to_m2mctx
p3281
I5561
sVconst u8 *
p3282
I1358
sVget_bits1
p3283
I3528
sVstruct tcp_sock *
p3284
I3440
sVfree_blocks_count
p3285
I1456
sVrb_left
p3286
I2571
sVnfs_revalidate_inode
p3287
I5427
sVEVP_MD_CTX
p3288
I999
sVFIRST_IN
p3289
I3286
sVSOCK_IOC_TYPE
p3290
I3154
sVstruct sctp_af *
p3291
I1755
sVnfsd4_decode_getattr
p3292
I1278
sVlock_page
p3293
I5106
sV"on committing transaction"
p3294
I5446
sVAC3Block *
p3295
I5554
sVb_flags
p3296
I2583
sVget_bitsz
p3297
I3529
sV262
p3298
I4334
sVEEXIST
p3299
I6703
sVconstant_time_eq_int_8
p3300
I490
sVhandshake_read_seq
p3301
I313
sVSSL2_VERSION
p3302
I429
sVkey_arg
p3303
I488
sVOP_WRITE
p3304
I1332
sVpage
p3305
I1986
sVdequant_ac
p3306
I5528
sVstruct sockaddr_storage *
p3307
I6402
sVdelete_from_swap_cache
p3308
I4190
sVstruct media_entity *
p3309
I3426
sVhome
p3310
I3102
sVssl3_dispatch_alert
p3311
I200
sVstruct TCP_Server_Info *
p3312
I1521
sVfind_entity
p3313
I2676
sVBN_num_bits
p3314
I800
sVnla_put_64bit
p3315
I4855
sVoverlap
p3316
I307
sV0x0320
p3317
I3890
sVswitch_buffer
p3318
I5893
sVxfs_sb_version_haslazysbcount
p3319
I2968
sVnat_get_blkaddr
p3320
I4517
sVjournal
p3321
I1654
sVBN_mod_exp
p3322
I1009
sVskb_headroom
p3323
I1991
sVhdspm_version_t
p3324
I6685
sVchar [ sizeof ( "4294967296 65635" ) ]
p3325
I1606
sVpcflag
p3326
I4890
sVreserved_gdb
p3327
I1459
sVneed_empty_fragments
p3328
I142
sVmant1_cnt
p3329
I5551
sVNM_I
p3330
I4529
sVpingv6_ops
p3331
I5186
sVenum sctp_scope
p3332
I6695
sVhw_error_pa
p3333
I3952
sVdst_release
p3334
I3723
sVpc
p3335
I2063
sVbyte_count
p3336
I3771
sVoldslp
p3337
I6336
sVAssignmentExpr
p3338
I11
sVhidp_get_device
p3339
I2706
sV_skb_refdst
p3340
I5130
sVhw
p3341
I2158
sVhb
p3342
I3012
sVstruct video_spu_palette __user *
p3343
I6004
sVdma
p3344
I6103
sVRT_SCOPE_UNIVERSE
p3345
I3754
sVtouch_mnt_namespace
p3346
I2209
sVi_flags
p3347
I3088
sVSSL2_CF_8_BYTE_ENC
p3348
I476
sVClassDefStatement
p3349
I3343
sVconst __portpair
p3350
I2282
sVend_pos2
p3351
I3509
sVskb_free_datagram
p3352
I5193
sVl2cap_pi
p3353
I3261
sVstruct rq_map_data *
p3354
I2390
sVAV_EF_BUFFER
p3355
I3531
sVkeepalive_probes
p3356
I4947
sVNLMSG_SPACE
p3357
I2547
sVfunctions
p3358
I4374
sVssl_init_wbio_buffer
p3359
I350
sVsk_ASN1_TYPE_num
p3360
I1028
sVinet_iif
p3361
I5171
sVsense_data_size
p3362
I3924
sVstat
p3363
I4050
sV"tun_chr_ioctl cmd %u\u005cn"
p3364
I6421
sVEVP_PKEY_RSA
p3365
I668
sVTTY_DRIVER_DEVPTS_MEM
p3366
I2520
sVstruct module *
p3367
I5137
sVstruct fib6_table *
p3368
I3243
sVstruct snd_ctl_file *
p3369
I1381
sVSTART_STOP_TIMEOUT
p3370
I3334
sVlist_add_tail
p3371
I4286
sVcompno
p3372
I5775
sVEXT_MAX_BLOCK
p3373
I3094
sVfb_id
p3374
I3064
sVnotify_t
p3375
I3393
sVfasync_helper
p3376
I5276
sVbytecode
p3377
I2641
sVEVP_MD_CTX_md
p3378
I157
sVsplice_from_pipe_begin
p3379
I4226
sVmsg_len
p3380
I460
sVu64 *
p3381
I4805
sVswap
p3382
I1180
sVJpeg2000Cblk *
p3383
I5808
sVblk
p3384
I5555
sVvoid
p3385
I581
sVstruct ib_uverbs_poll_cq_resp *
p3386
I5030
sVfilepage
p3387
I1171
sValert_fragment_len
p3388
I410
sVstruct ib_device *
p3389
I1735
sVgso_max_size
p3390
I6450
sVudp_flush_pending_frames
p3391
I4903
sVcgroup_bpf_enabled
p3392
I2044
sVmmdrop
p3393
I5008
sVTUN_VNET_LE
p3394
I6423
sVblock_coeff
p3395
I5524
sVskb_set_peeked
p3396
I6297
sVYAM_MODE
p3397
I6642
sVssl3_renegotiate
p3398
I853
sVNET_INC_STATS_BH
p3399
I2293
sVSCSI_SENSE_BUFFERSIZE
p3400
I3332
sVdlid_path_bits
p3401
I2119
sVEXT3_DIR_REC_LEN
p3402
I4032
sVlikely
p3403
I1808
sVnhoff
p3404
I1425
sV"%u %u"
p3405
I1601
sVav_clip
p3406
I5584
sVSETUP_ROCK_RIDGE
p3407
I6360
sVdr7
p3408
I1674
sVdr6
p3409
I4639
sVSIGILL
p3410
I1343
sVff_fmt_is_in
p3411
I5886
sVnet
p3412
I1644
sVsigalg
p3413
I593
sVi_ctime
p3414
I6325
sVcan_change_locked_flags
p3415
I2472
sVF_UNLCK
p3416
I4665
sVmem
p3417
I2795
sVpercpu_ref_put
p3418
I5026
sVEVP_PKEY_size
p3419
I666
sV100
p3420
I613
sVbitrate
p3421
I1714
sVsk_mark
p3422
I2270
sVdata_indication
p3423
I3386
sVSSL3_MT_CLIENT_HELLO
p3424
I291
sVdev_get_by_name
p3425
I3082
sVsmax_val
p3426
I4148
sVSSL_AD_UNEXPECTED_MESSAGE
p3427
I870
sVSSL_HANDSHAKE_MAC_SHA384
p3428
I629
sVsk_bound_dev_if
p3429
I1800
sVnfsd4_decode_lockt
p3430
I1273
sVnfsd4_decode_locku
p3431
I1264
sVpkt_len
p3432
I2233
sVunsigned char [ DTLS1_COOKIE_LENGTH ]
p3433
I550
sVsysctl_checksum
p3434
I1826
sVIPSTATS_MIB_INDISCARDS
p3435
I4605
sVvoid __user __force *
p3436
I6400
sVqp_num
p3437
I2125
sVcounts
p3438
I5997
sVdupmode
p3439
I1712
sVSSL_CB_READ_ALERT
p3440
I849
sVoverhead
p3441
I6462
sVfree_clusters
p3442
I4432
sVttys
p3443
I2514
sVmatroska
p3444
I3612
sVspin_unlock_irq
p3445
I5095
sVtype
p3446
I132
sVsec_family
p3447
I3648
sVext4_flex_group
p3448
I2784
sVcurrlen
p3449
I85
sVpayload_len
p3450
I1407
sVxfs_buf_flags_t
p3451
I2566
sVV
p3452
I6511
sVASN1_TLC *
p3453
I890
sVbits_per_coded_sample
p3454
I5914
sVroom
p3455
I5160
sVdma_ioctl
p3456
I2610
sVsetup
p3457
I4372
sVs_sbh
p3458
I1483
sVR_OK
p3459
I3650
sVicount
p3460
I5222
sVroot
p3461
I3976
sVcl_mem
p3462
I3600
sVchroma_width
p3463
I5836
sVprefixlen
p3464
I1640
sVsecurity_sb_eat_lsm_opts
p3465
I2468
sVTLS1_PRF_SHA384
p3466
I630
sVget_gate_vma
p3467
I2853
sVaac_hba_send
p3468
I3940
sVERESTARTNOINTR
p3469
I1134
sVpmcraid_copy_sglist
p3470
I4489
sVs_umount
p3471
I4749
sVxfs_sb_version_hasdalign
p3472
I2956
sVinet_frag_lru_move
p3473
I5128
sVconfig
p3474
I3877
sVAV_LOG_DEBUG
p3475
I5585
sVxfs_sb_version_hasasciici
p3476
I2965
sVorig_len
p3477
I984
sVIP_VS_CONN_TAB_SIZE
p3478
I3425
sVsctp_chunk_free
p3479
I6445
sVssl_prepare_clienthello_tlsext
p3480
I285
sVsyncid
p3481
I3400
sVff_vda_create_decoder
p3482
I3483
sV"%pMR"
p3483
I3259
sVb_iodone
p3484
I5208
sVfifo
p3485
I1351
sVipv4_is_lbcast
p3486
I2042
sV,
p3487
I685
sVVAR_NEGVAL
p3488
I5590
sVHRTIMER_MODE_ABS
p3489
I2525
sV"%s: Delayed status not supported for w_length != 0"
p3490
I4400
sVpersist
p3491
I1702
sVcred
p3492
I5399
sVdx_set_limit
p3493
I3993
sVff_get_extradata
p3494
I5910
sVICMP_PROT_UNREACH
p3495
I4062
sVuid_t
p3496
I3301
sVrectype
p3497
I542
sVmeat
p3498
I5119
sVext4_bg_num_gdb
p3499
I1460
sVsk_ll_usec
p3500
I3360
sVdotdot
p3501
I4003
sVrt6i_src
p3502
I3210
sVASN1_STRING_cmp
p3503
I836
sVfc_protocol
p3504
I3214
sVCIFS_MOUNT_UNX_EMUL
p3505
I6197
sVis_clcp_track
p3506
I5853
sVbit_rate
p3507
I5673
sV"nf_ct_dccp: short packet "
p3508
I4738
sVstruct hm_header_st *
p3509
I499
sVvcpu
p3510
I1666
sV24L
p3511
I825
sVifa_address
p3512
I6394
sViov_base
p3513
I2326
sVEC_POINT_new
p3514
I1001
sVav_image_get_linesize
p3515
I5747
sVb43_poison_rx_buffer
p3516
I6069
sVskb_network_offset
p3517
I5132
sVsk_tsflags
p3518
I2039
sV240
p3519
I3551
sVmdev
p3520
I2674
sVEVP_CIPH_CBC_MODE
p3521
I180
sVFL_POSIX
p3522
I4662
sV__IP_DEFRAG_CONNTRACK_IN_END
p3523
I6498
sVtcp_can_repair_sock
p3524
I4992
sVwait_for_more_packets
p3525
I3056
sVisk
p3526
I5195
sVCAPIMSG_APPID
p3527
I6042
sVVCPU_REGS_RAX
p3528
I2493
sVprefetch
p3529
I4591
sVRTO_ONLINK
p3530
I3758
sVDTLS1_RECORD_DATA
p3531
I993
sVkvm_set_msr
p3532
I4752
sVstruct scsi_ioctl_command __user *
p3533
I1243
sVpmcraid_abort_cmd
p3534
I4494
sVTIOCSERCONFIG
p3535
I6568
sVSSL_get_wbio
p3536
I518
sVstruct inet6_protocol *
p3537
I3121
sVBUF_MEM *
p3538
I122
sVblocks_count
p3539
I4426
sVav_expr_eval
p3540
I5587
sVTCA_XSTATS
p3541
I4112
sVtcpct_flags
p3542
I3453
sVSAVEMEM
p3543
I4236
sVmemcmp
p3544
I936
sVparams
p3545
I5903
sVsession_id_length
p3546
I26
sVVAR_MINVAL
p3547
I5600
sVTCPF_LISTEN
p3548
I4982
sVcapi_profile
p3549
I2728
sVgpa_t
p3550
I6683
sV", home);\u005cn\u005ct\u005ct\u005ctgoto out;\u005cn\u005ct\u005ct}\u005cn\u005cn\u005ct\u005ctif (stat(user_config, &st) < 0)\u005cn\u005ct\u005ct\u005ctgoto out_free;\u005cn\u005cn\u005ct\u005ctif (st.st_uid && (st.st_uid != geteuid())) {\u005cn\u005ct\u005ct\u005ctwarning("
p3551
I3651
sVR3DContext *
p3552
I5667
sVxfs_swapext_t *
p3553
I2417
sVsnd_ctl_elem_user_get
p3554
I3907
sV0x0200
p3555
I3874
sV0x0201
p3556
I3887
sVParameterType
p3557
I2
sVseq_rtt_us
p3558
I5147
sVFALSE
p3559
I4566
sVis_udplite
p3560
I1812
sVGFP_NOFS
p3561
I4525
sVactimeo
p3562
I6237
sVstruct ip_options_data
p3563
I2033
sVmce_cap
p3564
I4251
sVfc_flags
p3565
I3198
sVxfs_swapext_t
p3566
I2408
sVdtls1_preprocess_fragment
p3567
I320
sVgroup_send_sig_info
p3568
I6379
sVtty_lock
p3569
I6275
sVDTLSv1_2_client_method
p3570
I299
sVpmcraid_info
p3571
I4498
sVseed
p3572
I3988
sVotg_desc_len
p3573
I3876
sVMAY_NOT_BLOCK
p3574
I2434
sVicsk_ack
p3575
I4929
sVDRM_MINOR_CONTROL
p3576
I2618
sVtlen
p3577
I6137
sVspinlock_t *
p3578
I4340
sVNFS_STATE_POSIX_LOCKS
p3579
I4664
sVRECORD_LAYER_set_numrpipes
p3580
I851
sVdata1
p3581
I4029
sVShiftExpression
p3582
I146
sVstruct mm_struct *
p3583
I1147
sVput_cq_read
p3584
I4696
sVsnd_kcontrol_volatile_t
p3585
I4634
sVBN_is_one
p3586
I738
sVext4_group_desc_csum
p3587
I1452
sVconsumed
p3588
I5716
sVm
p3589
I803
sVconst struct b43_dma_ops *
p3590
I6078
sVhdspm_external_sample_rate
p3591
I2150
sVstruct shmem_inode_info *
p3592
I1195
sVpage_offset
p3593
I1977
sVFRAG6_CB
p3594
I1422
sVjbd2_journal_grab_journal_head
p3595
I1651
sVinfo_callback
p3596
I850
sVerrstr
p3597
I3317
sV~15
p3598
I4651
sVrbuf
p3599
I335
sVprivkey
p3600
I1011
sVip6_route_get_saddr
p3601
I2179
sV__get_user
p3602
I1433
sV"ep_queue --> %d\u005cn"
p3603
I3852
sVm_flags
p3604
I5328
sVsecpath_reset
p3605
I4068
sVib_dev
p3606
I1736
sVSGP_QUICK
p3607
I1172
sVnobrl
p3608
I6228
sVstruct kernel_siginfo *
p3609
I3113
sVcsum_sub
p3610
I1403
sVsend_sig
p3611
I5475
sVtcpct_value
p3612
I3446
sVbap
p3613
I5545
sVFRAG_CB
p3614
I6506
sVserver_finished_label_len
p3615
I772
sVrt6_set_expires
p3616
I3249
sVpathmtu
p3617
I6451
sVstruct ib_cq *
p3618
I1733
sVskb_end_pointer
p3619
I1981
sVSSL_OP_NO_DTLSv1_2
p3620
I304
sVSIOCGSKNS
p3621
I3156
sVsock_put
p3622
I4827
sVext4_rec_len_to_disk
p3623
I4033
sVvlc_coeff
p3624
I5520
sVget_arglen
p3625
I2665
sVexponent
p3626
I3519
sVsense_response_data_len
p3627
I3964
sVdctx
p3628
I760
sVskb_dst_drop
p3629
I4059
sVsend_sig_info
p3630
I4770
sVneed_reconnect
p3631
I4561
sV__u16
p3632
I2744
sVbi_iter
p3633
I6410
sVstruct hdspm_version
p3634
I3621
sVSOCK_LOCALROUTE
p3635
I1814
sVmmap_sem
p3636
I2852
sVEVP_CIPHER_CTX_mode
p3637
I165
sVkey_length
p3638
I481
sVkmalloc
p3639
I1231
sVset_alt
p3640
I4394
sVSSL3_RT_MAX_PLAIN_LENGTH
p3641
I276
sVint32_t
p3642
I5807
sVdst_init_metrics
p3643
I3245
sVheight
p3644
I3489
sVcheck_stack_guard_page
p3645
I1389
sVlast_in
p3646
I1420
sVnfsd4_decode_readdir
p3647
I1267
sVtun_set_iff
p3648
I3150
sVfps_24
p3649
I5093
sVfps_25
p3650
I5092
sVgfp_flags
p3651
I3147
sVREQ_COPY_USER
p3652
I2376
sVSSL3_AL_FATAL
p3653
I456
sVchroma_pixels
p3654
I5831
sVgnet_stats_start_copy_compat
p3655
I4109
sVf_owner
p3656
I4564
sVsbuffer
p3657
I83
sV"Invalid vdev_id %u\u005cn"
p3658
I6584
sVCastTarget
p3659
I21
sVfragsize
p3660
I1429
sVCL
p3661
I6334
sV'D'
p3662
I5737
sVCE
p3663
I6372
sVmct
p3664
I5952
sV163
p3665
I696
sVPID_MAX_LIMIT
p3666
I1896
sVexception
p3667
I2061
sVnskb
p3668
I1628
sVxfs_buf_lock
p3669
I2597
sVprivatekey
p3670
I471
sVring_info
p3671
I5006
sVpgrp
p3672
I2253
sVput_user
p3673
I2840
sVEVP_MAX_MD_SIZE
p3674
I988
sVcv_pix_fmt_type
p3675
I3502
sVip
p3676
I833
sVit
p3677
I893
sVjbd2_journal_put_journal_head
p3678
I5440
sVconst SSL_CIPHER *
p3679
I220
sV"invalid rec_len for '..'"
p3680
I4473
sVin
p3681
I90
sVid
p3682
I826
sVIPC_64
p3683
I6573
sVNETIF_F_SG
p3684
I4620
sVstruct socket *
p3685
I1504
sVBN_is_odd
p3686
I739
sVcdev
p3687
I3823
sVEXT4_INODE_EXTENTS
p3688
I6254
sVmsg_controllen
p3689
I1807
sVpipe_max_size
p3690
I6559
sVSSL3_RT_HEADER_LENGTH
p3691
I175
sVfsgid
p3692
I6037
sVunion sctp_params
p3693
I1744
sVINDICATION
p3694
I4269
sVstruct pmcraid_instance *
p3695
I1537
sVkdata
p3696
I2600
sVleft
p3697
I176
sVconfig_exclusive_filename
p3698
I3107
sVEC_GROUP *
p3699
I1006
sVIncDecOp
p3700
I56
sV||
p3701
I764
sVstruct dx_frame *
p3702
I4018
sVdccp_len
p3703
I1837
sVBN_rand
p3704
I918
sVyes
p3705
I2643
sVrange_base
p3706
I2594
sVArgumentList
p3707
I38
sVinet_ehash_lockp
p3708
I4579
sVfib_get_table
p3709
I1643
sVregion_size
p3710
I3526
sVstruct sctp_endpoint *
p3711
I3282
sVgenerate_new_key
p3712
I1041
sVextack
p3713
I3140
sV0xFF
p3714
I3465
sVYAM_MAXSLOTTIME
p3715
I6637
sVloff_t
p3716
I4603
sVops
p3717
I1081
sVAAC_SENSE_BUFFERSIZE
p3718
I3925
sVNFS_CLIENT
p3719
I5402
sVAVERROR_PATCHWELCOME
p3720
I6606
sV__IP6_INC_STATS
p3721
I1893
sVxfs_sb_version_hasreflink
p3722
I2993
sVEVP_DigestFinal_ex
p3723
I708
sVstruct snd_card *
p3724
I1382
sVis_out_50hz
p3725
I4335
sVuint8_t *
p3726
I3599
sV_dh
p3727
I1835
sVSSL2_PE_UNDEFINED_ERROR
p3728
I570
sVrlevel
p3729
I5796
sVbn_mod_exp
p3730
I789
sVopt_copy
p3731
I2028
sVdead
p3732
I4181
sVdev_high
p3733
I6347
sVraw_v6_htable
p3734
I3119
sVoptoff
p3735
I1892
sVSK_FORCE_REUSE
p3736
I4994
sV"%s"
p3737
I4733
sVTCA_DEF_PAD
p3738
I4857
sVstruct iphdr
p3739
I3137
sVstruct futex_pi_state *
p3740
I2835
sV__task_cred
p3741
I1912
sVIS_IMMUTABLE
p3742
I2424
sVHDSPM_RD_TCO
p3743
I5094
sVISOFS_I
p3744
I6370
sVIP_VS_DBG
p3745
I2667
sVstruct b43_dmaring *
p3746
I2765
sVbcm_proc_fops
p3747
I2103
sVstatus2
p3748
I5050
sVicmp_push_reply
p3749
I5164
sVcommit
p3750
I1281
sVfree_it
p3751
I6289
sVsectsize
p3752
I2925
sVskb_header_pointer
p3753
I1834
sVaio_max_nr
p3754
I1683
sVaac_fib_free
p3755
I6284
sVgroups_per_flex
p3756
I2779
sVUSB_TYPE_STANDARD
p3757
I3838
sVrsize
p3758
I2133
sVerrp
p3759
I2217
sVTF_MODIFY
p3760
I6352
sVssl3_get_message
p3761
I658
sVhdspm_system_clock_mode
p3762
I2148
sVstruct bnep_conndel_req
p3763
I6655
sVcoeff2
p3764
I5516
sVisonum_721
p3765
I6368
sVverify_group_input
p3766
I4448
sVUSB_COMP_EP0_BUFSIZ
p3767
I3866
sVFMODE_READ
p3768
I4669
sVqp_in
p3769
I3014
sVRT_SCOPE_LINK
p3770
I5169
sVstruct bnep_conninfo
p3771
I6653
sVerr2
p3772
I1476
sVhid_destroy_device
p3773
I6494
sVflex_gd
p3774
I4425
sVstruct sndrv_hdspm_mixer_ioctl
p3775
I6686
sVfl_file
p3776
I5277
sVdaddr
p3777
I1531
sVSNDRV_CTL_ELEM_ACCESS_READWRITE
p3778
I3698
sVstruct bnep_connadd_req
p3779
I1850
sVcompat_ipc_parse_version
p3780
I6572
sVnhoffp
p3781
I2995
sVblocksize
p3782
I2977
sVSOF_TXTIME_DEADLINE_MODE
p3783
I3369
sVskb_copy_datagram_msg
p3784
I1501
sV__skb_frag_ref
p3785
I2010
sValert_bytes
p3786
I449
sV65536
p3787
I3780
sVargs_phys
p3788
I5249
sVnext_handshake_write_seq
p3789
I977
sVadd_mcs
p3790
I4684
sVshmem_sb
p3791
I5235
sVfree_blocks
p3792
I1206
sVencap
p3793
I4314
sVTCA_STATS
p3794
I4111
sVskb_mac_header
p3795
I4628
sVclock_t_to_jiffies
p3796
I3199
sVstruct smb_vol *
p3797
I1522
sVrd_data
p3798
I2703
sVs_data_desired
p3799
I3449
sVput_compat_shminfo64
p3800
I4882
sVCAP_SYS_PTRACE
p3801
I1106
sVstruct fib6_info *
p3802
I2197
sVext4_warning
p3803
I4440
sVrxin
p3804
I6108
sVcorkreq
p3805
I1778
sVfsc
p3806
I6236
sVsctp_ulpq_free
p3807
I4177
sVconst struct hlist_nulls_node *
p3808
I4576
sVinet_frag_lru_add
p3809
I6446
sVTLS1_VERSION
p3810
I159
sVotg_rev
p3811
I3875
sVINET6_TW_MATCH
p3812
I2292
sVis_dumpable
p3813
I1104
sVidx2desc
p3814
I6076
sVV_ASN1_NEG_INTEGER
p3815
I1018
sVcscov
p3816
I1830
sVtcm__pad2
p3817
I1929
sVrecordinfo
p3818
I617
sVsegs
p3819
I1975
sVtcm__pad1
p3820
I1930
sVstruct seq_file *
p3821
I2686
sVu32 [ HBA_MAX_SG_EMBEDDED ]
p3822
I3959
sVis_60hz
p3823
I6033
sV0
p3824
I66
sVSSL_OP_CIPHER_SERVER_PREFERENCE
p3825
I575
sVsignal_pending
p3826
I6669
sVsk_err_soft
p3827
I3342
sVidct_permutation
p3828
I5683
sVrequest_type
p3829
I3665
sVperf_config_from_file
p3830
I3649
sVstrnlen
p3831
I2748
sVcipher_spec_length
p3832
I33
sVdif
p3833
I2290
sViter
p3834
I2693
sVext4_has_metadata_csum
p3835
I4042
sVitem
p3836
I315
sVJOBCTL_TRAPPING_BIT
p3837
I4776
sVXFS_FSOP_GEOM_FLAGS_RMAPBT
p3838
I2989
sVdir
p3839
I1593
sVmax_len
p3840
I500
sVrx_buffersize
p3841
I2767
sVhwaccel_context
p3842
I3492
sV_RET_IP_
p3843
I2569
sVaddr
p3844
I1142
sVlru_list
p3845
I5123
sVl3_unscale
p3846
I3537
sVFastResponseCapable
p3847
I3819
sVSSL_OP_MICROSOFT_BIG_SSLV3_BUFFER
p3848
I935
sVTCP_MSS_DESIRED
p3849
I3459
sVhb1
p3850
I2822
sVhb2
p3851
I2823
sVCAP_SYS_RAWIO
p3852
I6646
sVPACKET_HOST
p3853
I4063
sVCHECKSUM_NONE
p3854
I1987
sVbind_addr
p3855
I4169
sVaio_nr_sub
p3856
I4675
sVxfs_ifork_t *
p3857
I5303
sVwait
p3858
I4329
sVdst_hold
p3859
I6460
sVctinfo
p3860
I1596
sVS_IFMT
p3861
I5340
sVnonagle
p3862
I4941
sVgnet_stats_finish_copy
p3863
I6523
sVstruct drm_file *
p3864
I1367
sVreadbytes
p3865
I437
sVip_cmsg_recv
p3866
I5188
sVsas_ss_flags
p3867
I2309
sV0x62
p3868
I3764
sVpkt_type
p3869
I4064
sVVM_FAULT_SIGBUS
p3870
I6610
sVSSL3_ST_SR_CLNT_HELLO_A
p3871
I355
sVfl4
p3872
I1634
sV"allocated ioctx %p[%ld]: mm=%p mask=0x%x\u005cn"
p3873
I4676
sVfl6
p3874
I2176
sVpers
p3875
I1703
sVSOCK_SELECT_ERR_QUEUE
p3876
I3353
sVagcount
p3877
I2943
sVsaddr
p3878
I1530
sV__u32
p3879
I1250
sVstruct siginfo *
p3880
I3110
sVMemberAccess
p3881
I25
sVpeak_rms
p3882
I5048
sVqmant2_ptr
p3883
I5549
sVcp_count
p3884
I3046
sVrtextents
p3885
I2933
sVdtls_raw_hello_verify_request
p3886
I523
sVdouble_lock_hb
p3887
I5982
sV"lowpass_line_%d"
p3888
I3570
sVfget
p3889
I2409
sVcheck_mnt
p3890
I2212
sVi_mutex
p3891
I1621
sVstruct netlink_ext_ack *
p3892
I3139
sVBN_cmp
p3893
I736
sVBN_secure_new
p3894
I1044
sVVM_UFFD_MISSING
p3895
I4368
sVnormalize
p3896
I6216
sVASN1_CHUNK_INITIAL_SIZE
p3897
I108
sVEDESTADDRREQ
p3898
I6671
sVkioctx_cachep
p3899
I2088
sVget
p3900
I3908
sVcmd_drv
p3901
I2622
sV__in_dev_get
p3902
I6391
sVtile
p3903
I5772
sVuint8_t * *
p3904
I3610
sVnsproxy
p3905
I4097
sVmap
p3906
I2241
sVwrite_trylock_irqsave
p3907
I1138
sVstruct xfs_buftarg *
p3908
I3269
sVmax
p3909
I67
sVff_h264_decoder
p3910
I3481
sVmac
p3911
I148
sVnum_grp_locked
p3912
I4438
sVFUTEX_WRITE
p3913
I5985
sVfl_flags
p3914
I4663
sVTUN_TAP_DEV
p3915
I4099
sV"Can't resize non-sparse filesystem further"
p3916
I4456
sVrefcnt
p3917
I2345
sVmessage_size
p3918
I336
sVq
p3919
I125
sVstruct ec_cb *
p3920
I3125
sVEHOSTUNREACH
p3921
I6481
sVip_rt_put
p3922
I4894
sVHFCUSB_B2_RX
p3923
I4273
sVaio_kick_handler
p3924
I5015
sVTLS_ANY_VERSION
p3925
I406
sVSSL3_RECORD_get_off
p3926
I425
sVipip6_ecn_decapsulate
p3927
I4051
sVnext_slot
p3928
I6114
sVext4_handle_dirty_metadata
p3929
I4021
sVVFS
p3930
I5406
sVgroup
p3931
I698
sVcifs_prune_tlinks
p3932
I6240
sV__ip_vs_service_find
p3933
I6012
sVpercpu_ref_exit
p3934
I4679
sVrpcauth_lookupcred
p3935
I5400
sVstruct kvm_msr_list
p3936
I6539
sVgpu_env
p3937
I3597
sVstruct sctp_transport *
p3938
I1742
sVtimes
p3939
I6341
sVsense_data
p3940
I3926
sVinet_sport
p3941
I2025
sVstruct dma_pub *
p3942
I6099
sVf_flags
p3943
I2413
sVtw_v6_rcv_saddr
p3944
I2535
sVhdspm_sync_in_sync_check
p3945
I3631
sVssl_sess_cert_new
p3946
I646
sV__GFP_ZERO
p3947
I2863
sVbytestream2_init
p3948
I5755
sVEVP_CIPH_GCM_MODE
p3949
I179
sVSNDRV_CTL_ELEM_ACCESS_TLV_WRITE
p3950
I3700
sVserial_paranoia_check
p3951
I4868
sVtmpl
p3952
I1843
sVinvalidHandle
p3953
I4562
sVG
p3954
I5608
sVSCTP_PARAM_ACTION_MASK
p3955
I2225
sVuint16_t *
p3956
I5784
sVEXT4_DIR_REC_LEN
p3957
I4035
sVREQ_BLOCK_PC
p3958
I3381
sVTLSv1_server_method
p3959
I468
sVstruct b43legacy_hwtxstatus *
p3960
I2994
sVvector_fmul_reverse
p3961
I5880
sVsrbcmd
p3962
I3775
sVfirst
p3963
I2017
sV1U
p3964
I5495
sVipv6_get_ifaddr
p3965
I3722
sVputfh
p3966
I1324
sVCIFS_MOUNT_DYNPERM
p3967
I6201
sV1u
p3968
I2494
sVtipc_ownidentity
p3969
I6162
sV__GFP_DMA
p3970
I3789
sVlocked_vm
p3971
I4125
sVDH_FLAG_NO_EXP_CONSTTIME
p3972
I912
sVlist_del_init
p3973
I4836
sVSECCLASS_PROCESS
p3974
I4728
sVvblank_inmodeset
p3975
I4294
sVdevice_qual
p3976
I4396
sVfifonum
p3977
I4271
sVxfrm6_tunnel_spi_lookup
p3978
I2999
sVbackup_syncid
p3979
I3409
sV11
p3980
I266
sV10
p3981
I203
sV13
p3982
I264
sV12
p3983
I265
sV15
p3984
I2054
sV14
p3985
I1159
sV17
p3986
I2731
sV16
p3987
I942
sV18
p3988
I5691
sVnfsd4_decode_setattr
p3989
I1295
sVipv6_addr_equal
p3990
I2531
sVip_vs_conn_tab_size
p3991
I3422
sVjiffies_to_clock_t
p3992
I4847
sVsk_no_check
p3993
I3352
sVr3d
p3994
I5660
sVbcfg
p3995
I3416
sVstruct ipv6hdr
p3996
I1063
sVstruct hrtimer *
p3997
I2527
sVMNT_ATIME_MASK
p3998
I2453
sVwait_event
p3999
I4768
sVXFS_FSOP_GEOM_FLAGS_V5SB
p4000
I2967
sVchannel
p4001
I3811
sVwIndex
p4002
I3835
sV"file mode: 0x%x  dir mode: 0x%x"
p4003
I6211
sVtrace
p4004
I1935
sVCIFS_MOUNT_CIFS_ACL
p4005
I6206
sVCAPIMSG_SUBCOMMAND
p4006
I2740
sVr_frame_rate
p4007
I5657
sVstruct ec_device *
p4008
I3084
sV"sk %p"
p4009
I4748
sVhcon
p4010
I1859
sVrun_postproc
p4011
I5742
sVSCTP_IERROR_NO_ERROR
p4012
I6661
sVm_dir_geo
p4013
I2987
sVuserName
p4014
I4481
sVMS_BIND
p4015
I2207
sVtcfm_eaction
p4016
I2353
sVmax_sg_per_table
p4017
I2447
sVstruct msghdr
p4018
I6519
sVCRYPTO_LOCK_DSA
p4019
I958
sVSizeof
p4020
I246
sVcb
p4021
I848
sVop32_idx2desc
p4022
I6276
sVRC_NOCACHE
p4023
I3184
sVdrop_count
p4024
I2832
sViobase
p4025
I1716
sVTLS1_2_VERSION_MINOR
p4026
I352
sVclEnqueueMapBuffer
p4027
I3593
sVPROCESS__PTRACE
p4028
I4729
sVperf_config_global
p4029
I3106
sVcheck_func
p4030
I3569
sVEVP_VerifyFinal
p4031
I667
sV__ip_vs_get_dest_entries
p4032
I6007
sVgeo
p4033
I2908
sVmajorversion
p4034
I2739
sVnum_pages
p4035
I2793
sVSSL_OP_NO_TLSv1
p4036
I327
sVxfrm_decode_session_reverse
p4037
I5487
sVthisfl_p
p4038
I5272
sVSCTP_IERROR_NOMEM
p4039
I6659
sVdecryption_failed_or_bad_record_mac
p4040
I1045
sVstruct media_device *
p4041
I2673
sVssl3_enc
p4042
I149
sVasoc_shared_key
p4043
I4155
sVdo_ssl3_write
p4044
I131
sVnetdev_priv
p4045
I1701
sVinet_twsk_unhash
p4046
I4574
sVmnt_flags
p4047
I2202
sVUINT32_MAX
p4048
I126
sVenumerated
p4049
I3678
sVget_string
p4050
I3883
sVavio_tell
p4051
I5872
sVnl_fib_lookup
p4052
I2544
sVsize_in_bits
p4053
I3516
sVparent
p4054
I2564
sVfc_src_len
p4055
I3209
sVflist
p4056
I4543
sVjh
p4057
I1650
sVtun
p4058
I3298
sVARPHRD_ECONET
p4059
I3708
sVSSLfatal
p4060
I867
sV"(0x%p, 0x%p, %u, '%.*s')\u005cn"
p4061
I4221
sVIdentifier
p4062
I1
sVsnd_ctl_remove_user_ctl
p4063
I2749
sVnum_crtcs
p4064
I3255
sVSGP_DIRTY
p4065
I6591
sVUSB_RECIP_MASK
p4066
I4371
sVskip_bits_long
p4067
I5892
sVASN1_TFLG_TAG_CLASS
p4068
I908
sVkvm_register_read
p4069
I4754
sVfrag_skb
p4070
I1623
sVcopy_wc_to_user
p4071
I4699
sVip6_input
p4072
I3229
sVfc_dst
p4073
I3194
sVkvmppc_get_gpr
p4074
I5263
sV~TUN_VNET_LE
p4075
I6431
sV48000
p4076
I5098
sVstruct rtas_token_definition *
p4077
I5253
sVsctp_do_sm
p4078
I3277
sVcapable
p4079
I1105
sVstruct cifs_sb_info *
p4080
I4550
sVput_unaligned_le32
p4081
I3860
sV_off
p4082
I3057
sVmark
p4083
I2268
sVhid_output_raw_report
p4084
I2715
sVvn_bhv_head_t *
p4085
I5368
sVwpend_buf
p4086
I252
sVconst ASN1_ITEM *
p4087
I896
sVASN1_INTEGER *
p4088
I1054
sVconst struct sock_filter *
p4089
I4792
sVvtag
p4090
I1251
sV400
p4091
I5690
sVsigalgslen
p4092
I599
sVshmem_free_inode
p4093
I4838
sVrefill_pi_state_cache
p4094
I2833
sVVERIFY_READ
p4095
I1434
sVhdr
p4096
I2883
sVpskb_pull
p4097
I1398
sVCAPI_SERIAL_LEN
p4098
I2746
sVstruct inet6_dev *
p4099
I4608
sVt_nsec
p4100
I5362
sVCastExpression
p4101
I19
sVstruct inet_connection_sock *
p4102
I4925
sVpipe_unlock
p4103
I4223
sVput_pid
p4104
I2252
sVpar
p4105
I4327
sVpicture_structure
p4106
I5705
sVIP_DEFRAG_AF_PACKET
p4107
I6497
sVsctp_unhash_transport
p4108
I6441
sVav_malloc
p4109
I5662
sVS_ISUID
p4110
I2856
sVpad
p4111
I3470
sVpag
p4112
I2558
sVstruct address_space *
p4113
I1197
sVpal
p4114
I5083
sVCAP_DAC_OVERRIDE
p4115
I6038
sVavailable_free_memory
p4116
I2751
sVsockfd_put
p4117
I2174
sVoif
p4118
I1791
sVconst int [ 16 ]
p4119
I6515
sVconst int
p4120
I2289
sVCAPIMSG_U16
p4121
I2736
sVmax_size
p4122
I1352
sVtun_get_vnet_be
p4123
I6418
sVstruct vm_area_struct *
p4124
I1143
sVICMP_EXC_FRAGTIME
p4125
I3295
sVpqueue_size
p4126
I614
sVj_flags
p4127
I2509
sV"HNP on another port\u005cn"
p4128
I4401
sVCAP_DAC_READ_SEARCH
p4129
I6039
sVdccv_vlc
p4130
I5525
sVaspect
p4131
I5677
sV"invalid iotcl: pid=%d, dev=0x%lx, auth=%d, cmd=0x%02x, nr=0x%02x\u005cn"
p4132
I5991
sVget_alt
p4133
I4391
sVstruct sgmap64 *
p4134
I3774
sVparam
p4135
I661
sVxfs_mount_t *
p4136
I2980
sVopenFileList
p4137
I4571
sV4
p4138
I223
sVstruct kvm_msr_list __user *
p4139
I4244
sVasoc
p4140
I1163
sVNLMSG_NEW
p4141
I1095
sV"group set to %u\u005cn"
p4142
I6424
sV"get_ctl: len %u < %u\u005cn"
p4143
I6031
sVs_hash_unsigned
p4144
I4010
sVmov
p4145
I5859
sVXFRM_LOOKUP_ICMP
p4146
I5479
sVnum_dests
p4147
I6009
sVnlmsg_total_size
p4148
I2546
sV"Record type=%d, Length=%d\u005cn"
p4149
I949
sVserver
p4150
I407
sVtnum_subreg
p4151
I4146
sV"HFC-S USB: ERROR frame len(%d) fifo(%d)"
p4152
I4282
sVcomp_expr
p4153
I5588
sVvmalloc
p4154
I2791
sVnbuf
p4155
I2510
sVreaddir
p4156
I1268
sVENOSPC
p4157
I6595
sVnet2dev_map
p4158
I3707
sVNLA_PUT
p4159
I2363
sVSSL_MODE_AUTO_RETRY
p4160
I402
sVdata_ptr
p4161
I4697
sVIP_VS_VERSION_CODE
p4162
I3424
sVav_get_cpu_flags
p4163
I6604
sVDRM_CONTROL_ALLOW
p4164
I2620
sVicmpv6_send
p4165
I2889
sVIS_SYNC
p4166
I4203
sVstruct pagevec *
p4167
I2169
sVNF_DROP
p4168
I6628
sVbroken
p4169
I744
sVfree_inodes
p4170
I2783
sVs_def_hash_version
p4171
I3997
sVcookiepkt
p4172
I512
sVstruct file_lock * *
p4173
I5271
sVsig_nid
p4174
I589
sVSSL_accept
p4175
I333
sVprune_tlinks
p4176
I6241
sVnfsd4_decode_open
p4177
I1284
sV"%lu"
p4178
I2104
sVmixer
p4179
I5096
sVstruct inet_frag_bucket *
p4180
I3011
sVENODEV
p4181
I6487
sVinet_saddr
p4182
I1817
sVrb_fragments
p4183
I3288
sVi_nlink
p4184
I6331
sVput_compat_shmid_ds
p4185
I2012
sV"wsize %d too large, using 4096 instead"
p4186
I6226
sVsnd_ctl_elem_user_free
p4187
I3693
sVSSL_PKEY_DSA_SIGN
p4188
I657
sVstruct net *
p4189
I1646
sVtcm_parent
p4190
I1085
sVskb_orphan_frags
p4191
I1626
sVcorkflag
p4192
I4887
sVipv4
p4193
I4972
sVipv6
p4194
I3235
sVuintptr_t
p4195
I3788
sVroot_only
p4196
I6157
sVkvm_read_edx_eax
p4197
I4753
sVbg_free_inodes_count
p4198
I1472
sVossl_statem_app_data_allowed
p4199
I441
sVXFS_SB_VERSION_HASATTR2
p4200
I3169
sVGFP_KERNEL
p4201
I1318
sVzone_lru_lock
p4202
I6313
sVdi_format
p4203
I5306
sVi_size_read
p4204
I6259
sVmlog_errno
p4205
I4208
sVrtt_us
p4206
I5144
sVxfs_buf_hash_params
p4207
I5206
sVcoeff_index_to_pos
p4208
I5532
sVdi_mtime
p4209
I5364
sVdo_get_msr_feature
p4210
I4257
sVSS_CONNECTED
p4211
I4818
sVVN_BHV_HEAD
p4212
I5353
sVV4L2m2mContext *
p4213
I5560
sVipvs
p4214
I3408
sVstruct inet_hashinfo *
p4215
I4577
sVssl2_return_error
p4216
I569
sVX86_CR4_DE
p4217
I4910
sVwnum
p4218
I242
sVip6_frag_ecn
p4219
I5133
sVsndflow
p4220
I5185
sVfilp
p4221
I1350
sVmem_cgroup_cancel_charge
p4222
I4352
sVshmem_alloc_page
p4223
I1176
sVtun_detach_filter
p4224
I6428
sVfile
p4225
I1071
sVext4_free_inodes_count
p4226
I2787
sVs_reserved_gdt_blocks
p4227
I1465
sVcleanup
p4228
I5138
sVnfsd4_decode_renew
p4229
I1314
sVTIOCSSERIAL
p4230
I6567
sVtask_is_stopped
p4231
I1903
sVdrm_modeset_lock_all
p4232
I6310
sVHAL_TXRX_FRM_802_11_DATA
p4233
I6587
sVipv6_iface_scope_id
p4234
I5178
sVfname_name
p4235
I4026
sVstruct msr_data
p4236
I2500
sV480
p4237
I3547
sVstruct hidp_connadd_req *
p4238
I2697
sVff_texturedsp_init
p4239
I5769
sVETH_P_IPV6
p4240
I4067
sVu
p4241
I1266
sVDRIVER_ERROR
p4242
I6667
sVappl
p4243
I2745
sV0xff00
p4244
I513
sVfuncs
p4245
I6305
sVsco_pi
p4246
I1861
sVEVP_PKEY_assign_DSA
p4247
I751
sVSSL2_ST_GET_CLIENT_MASTER_KEY_B
p4248
I212
sVcprev
p4249
I6562
sVSSL2_ST_GET_CLIENT_MASTER_KEY_A
p4250
I213
sVAVERROR_EOF
p4251
I6541
sVframeoffset
p4252
I2777
sVstruct ec_framehdr *
p4253
I6127
sVstruct usb_function *
p4254
I4378
sVvm_end
p4255
I1148
sVEC_GROUP_new_by_curve_name
p4256
I719
sVbcm_rx_unreg
p4257
I4819
sVconst struct nlattr *
p4258
I2653
sVget_serial_info
p4259
I4867
sVBN_is_negative
p4260
I737
sVstruct ip_options
p4261
I3297
sVrmw_nexus
p4262
I3916
sVstderr
p4263
I947
sVcmd_type
p4264
I3326
sVsg_indx
p4265
I3791
sVIPSTATS_MIB_OUTNOROUTES
p4266
I4892
sVzero
p4267
I3854
sVdonor_blocks
p4268
I3093
sVRSA_PKCS1_PADDING
p4269
I486
sVXFS_FSOP_GEOM_FLAGS_SPINODES
p4270
I2988
sVusin
p4271
I1803
sVstruct inet_timewait_sock * *
p4272
I2273
sVdynperm
p4273
I6219
sVbio_copy_user_iov
p4274
I2373
sVgeneric_write_checks
p4275
I1926
sVchar __user *
p4276
I1854
sVdecode_cblk
p4277
I5810
sVext3fs_dirhash
p4278
I4005
sVSCTP_DEBUG_PRINTK
p4279
I4227
sVfib6_get_table
p4280
I3247
sVlpm_capable
p4281
I3869
sVBBTOB
p4282
I5213
sVslp
p4283
I6317
sVvalp
p4284
I2807
sVmac_header
p4285
I4071
sVAudioFrameQueue *
p4286
I5817
sVpagevec_add
p4287
I5111
sVip6_protocol_deliver_rcu
p4288
I4611
sVfrag_expire_skip_icmp
p4289
I3290
sVpeer_finish_md
p4290
I769
sVfdput
p4291
I5045
sVnfsd4_decode_lock
p4292
I1325
sVfwmark
p4293
I6015
sVmy_zero_pfn
p4294
I4362
sVconst union sctp_addr *
p4295
I1756
sVi_format_parm
p4296
I6361
sVBN_CTX *
p4297
I793
sVde2
p4298
I4008
sVtwp
p4299
I2274
sVID3D11VideoContext_Release
p4300
I5631
sVCIFSSMBClose
p4301
I4535
sVtnum_subreg_is_const
p4302
I4136
sVIN_DEV_SOURCE_ROUTE
p4303
I6405
sVupdate_free_nid_bitmap
p4304
I4532
sVdev
p4305
I1088
sVsk_family
p4306
I1574
sVvoid __user * [ HBA_MAX_SG_EMBEDDED ]
p4307
I3962
sVtw6
p4308
I2533
sVstruct frag_hdr *
p4309
I1396
sVlock_sem
p4310
I4556
sVTCP_QUEUES_NR
p4311
I4990
sVtv_usec
p4312
I4723
sVff_dlog
p4313
I5617
sVframe_format
p4314
I3627
sVstrlen
p4315
I75
sV!
p4316
I106
sVcsl
p4317
I342
sVhead_skb
p4318
I1622
sVinc_mm_counter
p4319
I4920
sVput_unaligned_le16
p4320
I3861
sVcst
p4321
I906
sVnb_precincts
p4322
I5795
sVos_desc_cfg
p4323
I3856
sVvendor_err
p4324
I2129
sVEVP_MD_size
p4325
I196
sVbytestream2_get_byte
p4326
I5764
sVresponse
p4327
I2134
sVASN1_STRING *
p4328
I1033
sVmaster_syncid
p4329
I3411
sVkvm_get_linear_rip
p4330
I4650
sVloff_t *
p4331
I1617
sVstruct drm_device *
p4332
I1369
sVhfc
p4333
I4260
sVcompletion_req
p4334
I4496
sVnf_ct_expect_related
p4335
I1582
sVrxgiants
p4336
I6102
sVRTPROT_UNSPEC
p4337
I6467
sVBN_RAND_TOP_ONE
p4338
I921
sVEAGAIN
p4339
I3051
sV24
p4340
I2738
sV25
p4341
I5671
sV20
p4342
I2729
sV22
p4343
I5932
sVsk_SSL_CIPHER_num
p4344
I583
sVprivate_free
p4345
I3694
sV28
p4346
I2727
sVTestClearPageMlocked
p4347
I5108
sVRTAX_MAX
p4348
I6478
sVEXT_MAX_BLOCKS
p4349
I6252
sVdepth_byte
p4350
I3562
sVcopy_to_user
p4351
I1694
sVstruct sgentry
p4352
I3800
sV"Ultimate Record type=%d, Length=%d\u005cn"
p4353
I948
sVCAPIMSG_U32
p4354
I2726
sVstruct inet_sock *
p4355
I2287
sV2L
p4356
I824
sVheadroom
p4357
I1990
sVtoken
p4358
I5254
sVports
p4359
I2283
sVYAM_MAXTXDELAY
p4360
I6636
sVoffset1
p4361
I6143
sVoffset2
p4362
I6144
sVDRM_MODE_FB_DIRTY_MAX_CLIPS
p4363
I3072
sVX509_ALGOR *
p4364
I1036
sVSNDRV_CTL_ELEM_TYPE_BOOLEAN
p4365
I3679
sV"func_suspend() returned error %d\u005cn"
p4366
I3899
sVvector_fmul_window
p4367
I5878
sV2UL
p4368
I1684
sV"rxin %d rxout %d, hw_curr %d\u005cn"
p4369
I6106
sV'p'
p4370
I5852
sVtb_lookup
p4371
I4875
sValloc_page
p4372
I2799
sVpix_fmt
p4373
I5504
sVsbp
p4374
I5358
sVtotal_sg_needed
p4375
I2439
sVFB_VBLANK_HAVE_VCOUNT
p4376
I1942
sV"Readonly filesystem"
p4377
I6617
sVbuffer_size
p4378
I1549
sVsbi
p4379
I1453
sVER
p4380
I6355
sVsk_atm
p4381
I4306
sVTCP_COOKIE_MIN
p4382
I3461
sVTCP_NAGLE_PUSH
p4383
I4942
sVTCA_STATS2
p4384
I4110
sVb_hold
p4385
I2593
sVgadget_is_otg
p4386
I3845
sVpref_sync_ref
p4387
I2154
sVstruct drm_framebuffer *
p4388
I3073
sVsk_dst_set
p4389
I4895
sVcurrent_egid
p4390
I6522
sVip6_rt_put
p4391
I6490
sVvdadec_close
p4392
I5816
sVfrom_kgid
p4393
I6425
sVs_resize_lock
p4394
I4420
sVinit_rock_state
p4395
I6377
sVSGP_READ
p4396
I1170
sVAVIO_FLAG_WRITE
p4397
I5946
sVmsg_iovlen
p4398
I2324
sVinit_user_ns
p4399
I2464
sVstruct user_sgmap *
p4400
I3808
sVsb_rextsize
p4401
I2974
sVtls12_get_sigid
p4402
I974
sVTCP_MIN_MSS
p4403
I2081
sVrec_len
p4404
I4002
sVb
p4405
I93
sVnf_nat_mangle_tcp_packet
p4406
I1595
sVconst struct tcp_sock *
p4407
I5152
sValloc_pages
p4408
I2845
sVchar
p4409
I806
sVRSA_verify
p4410
I663
sVyuvs
p4411
I3501
sVstruct atm_vcc *
p4412
I1370
sVbuild
p4413
I2394
sVstruct page *
p4414
I1175
sVEVP_PKEY_DSA
p4415
I669
sVINET_DIAG_BC_NOP
p4416
I2649
sVportid
p4417
I1932
sVCIFS_MOUNT_OVERR_UID
p4418
I6195
sV~1
p4419
I301
sV~3
p4420
I5842
sVuse_sync_decoding
p4421
I3505
sVfunc_suspend
p4422
I4389
sVskb_rtable
p4423
I2257
sVvmcs_readl
p4424
I1672
sVcookie_desired
p4425
I3443
sVkq
p4426
I960
sVIPSTATS_MIB_INDELIVERS
p4427
I4606
sVnum_precincts_y
p4428
I5798
sVinet_ehash_bucket
p4429
I4582
sVstruct scatterlist
p4430
I2846
sVBIGNUM *
p4431
I783
sVstruct rd_dev *
p4432
I2435
sVlock_limit
p4433
I4123
sV8
p4434
I147
sVudpmsg
p4435
I2322
sV__GFP_WAIT
p4436
I1228
sVASN1_TFLG_EXPTAG
p4437
I909
sVm_sb
p4438
I2912
sVext4_kvzalloc
p4439
I5496
sVnfsd4_decode_link
p4440
I1305
sVremove
p4441
I1272
sVDR7_GD
p4442
I2071
sVnfsd4_decode_delegreturn
p4443
I1321
sV"aio: allocated ioctx %p[%ld]: mm=%p mask=0x%x\u005cn"
p4444
I5005
sVSSL3_BUFFER
p4445
I611
sVxfs_lock_inodes
p4446
I5367
sVmaster_key_length
p4447
I202
sV"Filesystem failed CRC"
p4448
I6621
sV_exception
p4449
I1342
sVMpeg1Context *
p4450
I5678
sVip_defrag_offset
p4451
I1426
sVBIO_dgram_is_sctp
p4452
I618
sVskb_copy_from_linear_data
p4453
I1958
sVipq_kill
p4454
I6068
sVenc_flags
p4455
I626
sVsock_alloc_send_skb
p4456
I3123
sVEXT4_SB
p4457
I1475
sVcount_ext_compat
p4458
I4382
sV0xFFFFFF
p4459
I3642
sVTCP
p4460
I4164
sVPageWriteback
p4461
I1212
sVtx_frm_ota_comp_cb
p4462
I6582
sVTASK_INTERRUPTIBLE
p4463
I4332
sVMODE_MOV
p4464
I5845
sVBIO_ctrl
p4465
I615
sVinterfaces
p4466
I6583
sVsk_ack_backlog
p4467
I4161
sVBT_SK_DEFER_SETUP
p4468
I1866
sVenc_err
p4469
I931
sVtruncate_inode_pages
p4470
I4839
sVreal_mount
p4471
I2215
sVSEND_SIG_FORCED
p4472
I4772
sVUSB_TYPE_MASK
p4473
I3839
sVhandshake_func
p4474
I239
sVIdentifierDeclType
p4475
I65
sVcgctx
p4476
I4802
sVstruct b43legacy_rxhdr_fw3 *
p4477
I2775
sVXferState
p4478
I3815
sVinit_get_bits
p4479
I5668
sVAVFilterPad
p4480
I3475
sVmethod_mont_p
p4481
I787
sVsigned_sub32_overflows
p4482
I4150
sVvmcs_writel
p4483
I4637
sVXFS_FSOP_GEOM_FLAGS_DIRV2CI
p4484
I2961
sVnetif_queue_stopped
p4485
I6300
sVtgid
p4486
I1116
sVcreate
p4487
I1294
sVrets
p4488
I5251
sVmsrs_to_save
p4489
I4249
sVbrcmu_pkt_buf_free_skb
p4490
I6088
sVpsk_identity_hint
p4491
I692
sVrbuf_len
p4492
I951
sVs_journal
p4493
I2507
sVin_read_app_data
p4494
I444
sVkvm_read_guest
p4495
I5260
sVIFF_TUN
p4496
I4075
sVV_ASN1_SEQUENCE
p4497
I1026
sVskb_headlen
p4498
I1961
sVverify_area
p4499
I2310
sVearly_data_state
p4500
I448
sVkey2
p4501
I2812
sVkey1
p4502
I2813
sVINET_COMBINED_PORTS
p4503
I2284
sVdataoff
p4504
I1829
sVMSG_PROBE
p4505
I1805
sVsk_reuse
p4506
I3357
sVAF_NETROM
p4507
I1507
sVNLMSG_DATA
p4508
I1089
sVCIFS_MOUNT_NOSSYNC
p4509
I6196
sVmct_decode
p4510
I5951
sVSKBTX_SHARED_FRAG
p4511
I2004
sVNUD_VALID
p4512
I2186
sVinet6_iif
p4513
I5180
sVxfs_inode_t * [ 2 ]
p4514
I5381
sVup_read
p4515
I2851
sVstruct ip_tunnel *
p4516
I1533
sVrwlock_t *
p4517
I4594
sVav_image_check_size
p4518
I5727
sVSHMEM_I
p4519
I1196
sVstruct nfsd4_compoundargs *
p4520
I1260
sVrle_remaining_len
p4521
I3582
sVip_vs_backup_syncid
p4522
I3399
sVskb_frag_t *
p4523
I4615
sVstruct aac_srb_reply *
p4524
I6281
sVorefdst
p4525
I5129
sVkeya
p4526
I204
sVsctp_assoc_add_peer
p4527
I4719
sVtask
p4528
I1099
sVmkpath
p4529
I3100
sVTCP_CLOSE
p4530
I4985
sVflowi6_oif
p4531
I2192
sVV_ASN1_EOC
p4532
I111
sVflags
p4533
I81
sVuint32_t
p4534
I128
sVy
p4535
I3523
sVentry
p4536
I1167
sVsignalled
p4537
I6631
sVlastuse
p4538
I4846
sVsctp_paramhdr_t
p4539
I6555
sVnew_method
p4540
I328
sVstruct clip_vcc *
p4541
I1378
sVJpeg2000T1Context
p4542
I6518
sVext3_append
p4543
I3985
sVnfsd4_decode_lookup
p4544
I1308
sVPAGE_CACHE_SIZE
p4545
I4210
sVEXT4_EXTENTS_FL
p4546
I3087
sVcan_rx_unregister
p4547
I4823
sVstruct ib_uverbs_file *
p4548
I1723
sVPT_PTRACE_CAP
p4549
I1101
sVREAD32
p4550
I4235
sVhdspm_peak_rms_t
p4551
I5395
sVbio
p4552
I845
sVtask_pgrp
p4553
I6384
sVeivlen
p4554
I151
sVIPSTATS_MIB_REASMFAILS
p4555
I5115
sVstruct tty_driver *
p4556
I5134
sVstruct econet_sock *
p4557
I3770
sVconst ASN1_TEMPLATE *
p4558
I903
sVKVM_DEBUGREG_WONT_EXIT
p4559
I4646
sVOSYNC_METADATA
p4560
I4206
sVEVP_VerifyInit_ex
p4561
I700
sVip6_convert_metrics
p4562
I6002
sVTCPF_ESTABLISHED
p4563
I4986
sVkfree
p4564
I2131
sVsir_lsap_sel
p4565
I1875
sVxfs_sb_version_hasattr
p4566
I2948
sVILL_ILLOPC
p4567
I1344
sV"not enough memory for %u flex groups"
p4568
I5492
sVSSL3_ST_CR_KEY_EXCH_A
p4569
I659
sVSSL3_ST_CR_KEY_EXCH_B
p4570
I660
sVperf_config__init
p4571
I2879
sVppos
p4572
I1618
sVmmap_base
p4573
I4673
sVFUTEX_READ
p4574
I5986
sVBUS_BLUETOOTH
p4575
I2716
sVidr_read_cq
p4576
I1725
sVvda_ctx
p4577
I3484
sVFunction
p4578
I62
sVchroma_inter_matrix
p4579
I5682
sVflowi4_to_flowi
p4580
I4899
sVcnow
p4581
I5224
sVOPENSSL_realloc
p4582
I808
sVxfs_trans_alloc
p4583
I5318
sVSSL_get_ciphers
p4584
I272
sVpSMBFile
p4585
I1553
sVsaved_proto
p4586
I1586
sVrd_page_count
p4587
I2443
sVis_complete
p4588
I886
sVaio_setup_ring
p4589
I2089
sVsnd_ctl_elem_user_tlv
p4590
I3686
sVbcdUSB
p4591
I3886
sVempty_fragment_done
p4592
I136
sVstruct serial_state
p4593
I4871
sVframes
p4594
I4016
sVINET6_MATCH
p4595
I2291
sV__func__
p4596
I3272
sVsock_prot_inuse_add
p4597
I4583
sVtifp
p4598
I5295
sVunsigned long *
p4599
I305
sVput_compat_shm_info
p4600
I4876
sVkmemdup
p4601
I3939
sV'r'
p4602
I5851
sVAVIO_FLAG_READ
p4603
I5948
sVvnet_hdr_sz
p4604
I4073
sVicsk_syn_retries
p4605
I4932
sVnf_log_packet
p4606
I4739
sVf_dentry
p4607
I5286
sVMAX_EMPTY_RECORDS
p4608
I1052
sVsb_agcount
p4609
I2944
sV__skb_wait_for_more_packets
p4610
I3054
sVmk_pte
p4611
I4343
sVvblank
p4612
I1934
sVclips
p4613
I6304
sVparam_len
p4614
I671
sVKERN_INFO
p4615
I4084
sVEVP_sm3
p4616
I762
sVwrite_lock
p4617
I4565
sVnetdev_state_change
p4618
I6435
sVunsigned char [ EVP_MAX_MD_SIZE ]
p4619
I1047
sVaddr_param
p4620
I4713
sVcmd_len
p4621
I1236
sVlace_size
p4622
I5638
sVsignal_wake_up
p4623
I4766
sVDMA_CTRL_RXMULTI
p4624
I6104
sVvalue_sizes
p4625
I4709
sVSSL_R_CCS_RECEIVED_EARLY
p4626
I881
sVnla_data
p4627
I2656
sVSSL3_RECORD_get_length
p4628
I378
sVs_rock
p4629
I6318
sVTCP_ULP_NAME_MAX
p4630
I2085
sVS_ISREG
p4631
I2427
sVsin_addr
p4632
I1568
sVmcast_ifn
p4633
I3402
sVCloseHandle
p4634
I5628
sVCIFS_MOUNT_NO_XATTR
p4635
I6198
sVtw_dport
p4636
I2532
sVkill_proc_info
p4637
I6386
sVstruct bnep_connlist_req
p4638
I6650
sV_xfs_buf_initialize
p4639
I5989
sVSOCK_KEEPOPEN
p4640
I3349
sVcl_droppriv
p4641
I6035
sVstruct ib_uverbs_poll_cq
p4642
I1732
sVsk_SSL_CIPHER_free
p4643
I577
sVMSG_DONTROUTE
p4644
I1796
sVAndExpression
p4645
I68
sVstruct user_element *
p4646
I3692
sVDMA_NONE
p4647
I3801
sVSSL3_ST_CW_CLNT_HELLO_A
p4648
I300
sVbits_left
p4649
I3510
sVSSL3_ST_CW_CLNT_HELLO_B
p4650
I158
sVint *
p4651
I322
sVFI_REMAPF_LOCKED
p4652
I5384
sVconst struct hm_header_st *
p4653
I457
sVrelease_lockowner
p4654
I1277
sVext4_calculate_overhead
p4655
I4458
sVfl4_dport
p4656
I2026
sVMNT_READONLY
p4657
I2461
sVkeepalive_time_elapsed
p4658
I4939
sVJOBCTL_TRAPPING
p4659
I4786
sVvlc
p4660
I3535
sVstruct kvm_cpuid2 __user *
p4661
I4243
sVsock_prot_inc_use
p4662
I4592
sVRLIMIT_MEMLOCK
p4663
I6532
sVpte_none
p4664
I4358
sVstruct netns_ipvs *
p4665
I6025
sVwrtPending
p4666
I4552
sVnfrags
p4667
I1976
sVEXT4_IGET_SPECIAL
p4668
I4460
sVskb_frag_size
p4669
I2009
sVsnprintf
p4670
I1600
sVsin6
p4671
I2272
sVssl_dispatch_alert
p4672
I170
sV0x7
p4673
I1423
sVSS_DISABLE
p4674
I2311
sV0x5
p4675
I4404
sV0x4
p4676
I4405
sVioctl_cmd
p4677
I1550
sVssl3_renegotiate_check
p4678
I412
sVol_tx_non_std
p4679
I5954
sVaccess
p4680
I1290
sVNFS_PROTO
p4681
I5412
sVbt_sk
p4682
I1867
sVwrite_trylock
p4683
I1136
sVprocess_group
p4684
I6388
sVIRDAPROTO_ULTRA
p4685
I2342
sVdma_spin_for_len
p4686
I6096
sVtransp_mode
p4687
I4265
sVHDSPM_MADI_peakrmsbase
p4688
I5394
sVstats_lock
p4689
I4113
sV32
p4690
I2492
sV31
p4691
I2522
sV30
p4692
I5090
sVcert
p4693
I474
sV0xF
p4694
I5733
sVdo_shmctl
p4695
I6576
sVframe_len
p4696
I2770
sVs32_max_value
p4697
I4139
sVtipc_peer
p4698
I6163
sVprivate
p4699
I2689
sVMAX_TCP_KEEPIDLE
p4700
I4980
sVvoid * [ HBA_MAX_SG_EMBEDDED ]
p4701
I3961
sVmem_cgroup_commit_charge
p4702
I4353
sVgateway
p4703
I6525
sVfraglen
p4704
I525
sVchn
p4705
I3917
sVtnl_hlen
p4706
I2005
sVrxhdr
p4707
I2769
sVchr
p4708
I6349
sVinet_select_addr
p4709
I5168
sVpkey
p4710
I638
sVrx_reg_dev
p4711
I4821
sVirias_insert_object
p4712
I1880
sVsiglock
p4713
I4764
sViif
p4714
I2754
sVGFP_NOIO
p4715
I6449
sVENOENT
p4716
I1641
sVle32_to_cpu
p4717
I2317
sVGFP_USER
p4718
I1234
sVtcf_bindcnt
p4719
I2349
sVf
p4720
I3010
sVtunnel
p4721
I1528
sVflowi4_init_output
p4722
I3753
sVICMP_TIME_EXCEEDED
p4723
I3294
sVfs_context_for_reconfigure
p4724
I2475
sVmajmin
p4725
I4840
sVauth_needed
p4726
I6158
sVvalid_cc
p4727
I2640
sVuaddr1
p4728
I2555
sVsrcu_read_lock
p4729
I5261
sVBUG_ON
p4730
I1978
sVcodsty
p4731
I5778
sVtcp_set_rto
p4732
I5159
sVpskb_may_pull
p4733
I1062
sVpvolume_info
p4734
I6189
sVholdd
p4735
I1709
sVafq
p4736
I5818
sVsax25_family
p4737
I1508
sVSSL2_MT_CLIENT_HELLO
p4738
I57
sVprofile
p4739
I2735
sVptrace_link
p4740
I4787
sVhw_fib_va
p4741
I3818
sV"%s/.perfconfig"
p4742
I3101
sV"Out of memory"
p4743
I6619
sVinit_msg
p4744
I662
sVstruct udphdr
p4745
I1776
sVsk_busy_loop
p4746
I3060
sVaddons
p4747
I3614
sVsk_dst_check
p4748
I1784
sVbytestream2_get_buffer
p4749
I5751
sVbind
p4750
I2347
sVNUMA_NO_NODE
p4751
I2002
sVsetup_rock_ridge
p4752
I6378
sVCMDID
p4753
I2669
sVGUEST_DR7
p4754
I2070
sVssize_t
p4755
I6612
sVvar_values
p4756
I5579
sVcont_offset
p4757
I6371
sVssl_bytes_to_cipher_list
p4758
I568
sVstruct inet_diag_bc_op
p4759
I2648
sVavio_write
p4760
I5647
sVstruct pmcraid_cmd *
p4761
I3669
sVtasklist_lock
p4762
I1137
sVdst_mtu
p4763
I5163
sVtcm_ifindex
p4764
I1086
sVstruct iovec [ msg -> msg_iovlen + 1 ]
p4765
I3122
sVtun_get_iff
p4766
I4095
sVregard_xa
p4767
I6357
sV"%s: Block out of range: block 0x%llx, EOFS 0x%llx "
p4768
I3271
sVprefix_len
p4769
I130
sVSNDRV_CTL_ELEM_TYPE_ENUMERATED
p4770
I3676
sVi_first_extent
p4771
I6322
sVpsessionEntry
p4772
I5961
sVli
p4773
I4554
sVlv
p4774
I3339
sVtcp_fastopen_init_key_once
p4775
I4973
sVvalid_markcond
p4776
I2657
sVstack_kdata
p4777
I2609
sVxfs_fsop_geom_t *
p4778
I2907
sVstruct nfsd4_op *
p4779
I1334
sVnet_ipvs
p4780
I6026
sVmem_cgroup_uncharge_page
p4781
I4347
sVSS_DISCONNECTING
p4782
I6167
sVskb_dequeue
p4783
I1379
sVMSG_TRUNC
p4784
I1502
sVTUN_PERSIST
p4785
I4102
sVstruct sk_buff * *
p4786
I2239
sVfmode_t
p4787
I1246
sVsplice_from_pipe_next
p4788
I1920
sVDTLSv1_client_method
p4789
I281
sVdst_set_neighbour
p4790
I3220
sVllist
p4791
I4555
sVXFS_SB_VERSION_HASSECTOR
p4792
I3159
sVkfree_skb
p4793
I1375
sVSSL_C_IS_EXPORT
p4794
I489
sVcmtp_application_get
p4795
I6043
sVCIFS_MOUNT_STRICT_IO
p4796
I6244
sVres
p4797
I1635
sVEC_KEY_get0_group
p4798
I1003
sVreq
p4799
I2698
sVret
p4800
I403
sVbuffer_jbddirty
p4801
I5453
sVMAY_OPEN
p4802
I5430
sVrec
p4803
I1361
sVref
p4804
I1519
sVreg
p4805
I1675
sVCRYPTO_memcmp
p4806
I985
sVBIGNUM
p4807
I1049
sVnoop_qdisc
p4808
I6302
sVsax25_call
p4809
I3718
sVBIO_flush
p4810
I538
sVipv6_skb_net
p4811
I1891
sVV_ASN1_CONSTRUCTED
p4812
I1031
sVKM_MAYFAIL
p4813
I2416
sV"error allocating ioctx %d\u005cn"
p4814
I4671
sVmsg_header
p4815
I310
sVExclusiveOrExpression
p4816
I5533
sVHDSPM_RD_PLL_FREQ
p4817
I3639
sVblk_rq_set_block_pc
p4818
I6448
sVdel_timer
p4819
I4183
sVbg_checksum
p4820
I1451
sVDRM_RENDER_ALLOW
p4821
I2635
sVbNumConfigurations
p4822
I3892
sVinet_csk_exit_pingpong_mode
p4823
I5002
sVlru_cache_add_active
p4824
I4919
sVoutput_rms
p4825
I5054
sVPKCS8_NS_DB
p4826
I745
sVdst_metric_set
p4827
I3238
sVstruct frag *
p4828
I3466
sVMULTICAST
p4829
I1801
sVusize
p4830
I2601
sVediPartyName
p4831
I965
sVVM_WRITE
p4832
I4363
sVLOG_INVALID
p4833
I4740
sVfastopen_init_queue
p4834
I4989
sVstruct b43legacy_dmadesc_generic *
p4835
I6081
sVwarn_alert
p4836
I400
sVprob_offset
p4837
I1428
sVSSL3_RECORD_add_length
p4838
I866
sV__skb_queue_head_init
p4839
I4317
sVs32
p4840
I4132
sVhnp_polling_support
p4841
I3846
sVtwrefcnt
p4842
I4573
sV~0xff
p4843
I6346
sVmm_forbids_zeropage
p4844
I4366
sVstruct ec_device
p4845
I3901
sVkgid_t
p4846
I3037
sVBPF_CGROUP_RUN_PROG_UDP4_SENDMSG_LOCK
p4847
I2043
sVOSStatus
p4848
I6601
sVfl6_dst
p4849
I2481
sVBIO *
p4850
I89
sVfsuid
p4851
I6036
sVunsigned char [ SEQ_NUM_SIZE ]
p4852
I545
sVucore
p4853
I4704
sVnfs4_proc_setlk
p4854
I4652
sVxfs_sb_version_hasprojid32bit
p4855
I2970
sVkvm_vcpu_is_bsp
p4856
I2228
sVskb_checksum
p4857
I2008
sVcardname
p4858
I3619
sVthis_cpu_read
p4859
I6294
sVopen_downgrade
p4860
I1298
sVdfprintk
p4861
I5405
sVstruct bio *
p4862
I5241
sVEXT4_HAS_INCOMPAT_FEATURE
p4863
I4421
sVTIOCGSERIAL
p4864
I6566
sVDR7_FIXED_1
p4865
I4914
sVXFS_FSOP_GEOM_FLAGS_QUOTA
p4866
I2947
sVHDSPM_TCO1_set_drop_frame_flag
p4867
I5076
sVtask_pid
p4868
I5292
sVmoved_len
p4869
I3085
sVERR_peek_error
p4870
I115
sVrequest
p4871
I1677
sVav_dlog
p4872
I5664
sVstruct ivtvfb_dma_frame
p4873
I6662
sV"%s: interface %d (%s) requested delayed status\u005cn"
p4874
I4395
sVstruct drm_mode_fb_dirty_cmd *
p4875
I3061
sVXFS_BHVTOI
p4876
I5329
sVclient_finished_label_len
p4877
I770
sVAC3_MAX_BLOCKS
p4878
I5556
sVAV_PICTURE_TYPE_I
p4879
I5753
sVskb_tail_pointer
p4880
I2260
sVVM_DONTEXPAND
p4881
I1554
sVstruct pidmap *
p4882
I4763
sVioctx_lock
p4883
I5009
sVoutput_peaks
p4884
I5065
sV__ip_vs_svc_fwm_get
p4885
I6024
sVINET_FRAG_EVICTED
p4886
I6499
sVimaxpct
p4887
I2913
sVCAP_SYS_ADMIN
p4888
I1769
sVtermios_locked
p4889
I2511
sVtpAniSirGlobal
p4890
I6609
sVi_blkbits
p4891
I3096
sVgetfrag
p4892
I1810
sVstruct aac_hba_cmd_req *
p4893
I3956
sVtlist
p4894
I4542
sVNAMED_CURVE_TYPE
p4895
I970
sVUnaryOp
p4896
I43
sVshtx
p4897
I2020
sVsb_logstart
p4898
I2918
sVTF_ATTRIBUTES
p4899
I6350
sVudp_sk
p4900
I4889
sVwc
p4901
I2117
sVMINSIGSTKSZ
p4902
I2313
sVSS_ONSTACK
p4903
I2312
sVstruct flex_groups
p4904
I2785
sV" %d"
p4905
I5686
sVYAM_HOLDDLY
p4906
I6640
sVbytestream2_skip
p4907
I5768
sVFORMAT_UNIT_TIMEOUT
p4908
I3335
sVstsap_sel
p4909
I1884
sVwindow_clamp
p4910
I4933
sVhdspm_pref_sync_ref
p4911
I2155
sVMAX_PASSWORD_SIZE
p4912
I3729
sVcred_exec_mutex
p4913
I1139
sVremaining_samples
p4914
I5820
sVIFF_ISATAP
p4915
I4054
sVcpuid_arg
p4916
I4242
sVXFS_IOLOCK_EXCL
p4917
I5332
sVEVP_DigestInit
p4918
I683
sVfifon
p4919
I4270
sVpte_mkspecial
p4920
I4360
sVconst stack_t __user *
p4921
I1430
sVstruct vda_context *
p4922
I3500
sVwait_on_page_writeback
p4923
I4189
sVbcm_rx_handler
p4924
I4824
sV'S'
p4925
I5738
sVerror_ptr_hi
p4926
I3954
sViget
p4927
I6321
sVDTLS1_2_VERSION
p4928
I287
sVfind_get_page
p4929
I1179
sVtls1_suiteb
p4930
I286
sVcopied
p4931
I306
sVhci_handle
p4932
I1858
sVstruct rock_ridge *
p4933
I6348
sVSSL3_VERSION_MAJOR
p4934
I362
sVNFS_FLAGS
p4935
I5415
sVfinal_finish_mac
p4936
I767
sVassert
p4937
I810
sVopnum
p4938
I1269
sVstruct sctp_packet *
p4939
I1252
sVrunv_vlc
p4940
I5519
sVvalue
p4941
I74
sVTLS1_PRF_SHA256
p4942
I995
sVswitch_db_regs
p4943
I4647
sVecn_capable
p4944
I1248
sVat
p4945
I3992
sVTLS1_VERSION_MINOR
p4946
I360
sVYAM_MAXBITRATE
p4947
I4686
sValert_count
p4948
I392
sVnfserr_minor_vers_mismatch
p4949
I1328
sVsteering_prog
p4950
I6434
sVip6_dst_idev
p4951
I2483
sVsctp_association_put
p4952
I4157
sVfc_ifindex
p4953
I3211
sVMatroskaDemuxContext *
p4954
I3611
sVtcf_lock
p4955
I4862
sVmin_t
p4956
I3047
sVSPP_PMTUD_ENABLE
p4957
I6458
sV"Duplicate VBLK, part %d."
p4958
I4289
sVelem_data
p4959
I3691
sVdx_set_block
p4960
I3996
sVrrec
p4961
I405
sVSSL3_ST_SR_FINISHED_A
p4962
I619
sVEBADF
p4963
I6625
sViov
p4964
I2319
sVvos_context
p4965
I5967
sVlast_vsync_field
p4966
I1939
sVip_blkno
p4967
I4216
sVcq_handle
p4968
I1726
sVrstate
p4969
I331
sVsctp_tsnmap_free
p4970
I4171
sVminorversion
p4971
I1333
sVstruct nf_conntrack_expect *
p4972
I1580
sVlport
p4973
I2278
sVskb_queue_splice_tail
p4974
I6119
sVudp_push_pending_frames
p4975
I1770
sVsk_socket
p4976
I3750
sVunsigned char *
p4977
I22
sVmessage_type
p4978
I656
sVbio_unmap_user
p4979
I2381
sVAAC_MAX_TARGETS
p4980
I3920
sVxfs_trans_commit
p4981
I5304
sVIP6_INC_STATS
p4982
I5113
sVpi_state
p4983
I2828
sVBN_generate_dsa_nonce
p4984
I776
sV__put_user
p4985
I4406
sVstruct icmp_bxm
p4986
I2271
sVDB_VECTOR
p4987
I2060
sVtun_set_vnet_be
p4988
I6417
sVskb_migrate
p4989
I4321
sVhdspm_madi_sync_check
p4990
I3635
sVtun_put
p4991
I4098
sVmatch
p4992
I6278
sVtfile
p4993
I3151
sVext4_handle_dirty_dx_node
p4994
I4015
sVelapsed
p4995
I4937
sVvcpu_load_rsp_rip
p4996
I4908
sVNFS_SERVER
p4997
I5428
sVEC_POINT_oct2point
p4998
I715
sVset_offload
p4999
I4081
sVFLAC_SUBFRAME_VERBATIM
p5000
I5906
sVshmem_swapin
p5001
I1185
sVIPV6_ADDR_LOOPBACK
p5002
I6470
sVext4_mb_alloc_groupinfo
p5003
I4446
sVpacket_length
p5004
I343
sVbn_ctx
p5005
I717
sVPageSwapCache
p5006
I1216
sV__le16 *
p5007
I6092
sVUSB_RECIP_INTERFACE
p5008
I3830
sVpostproc
p5009
I5767
sVptype
p5010
I1030
sVdst_free
p5011
I3149
sVu8 __user *
p5012
I4700
sVnum_msr_based_features
p5013
I4254
sVxfs_alert
p5014
I3270
sVIOC_OUT
p5015
I2612
sVtmp
p5016
I27
sVXFS_FSOP_GEOM_FLAGS_ATTR
p5017
I2945
sVvalid_hostcond
p5018
I2646
sVVP56Context *
p5019
I5514
sVGP_VECTOR
p5020
I4909
sVBUF_MEM_grow
p5021
I537
sVudpsock
p5022
I2321
sVDST_NOCOUNT
p5023
I3233
sVswap_free
p5024
I4192
sVdcd
p5025
I5230
sVPAGEVEC_SIZE
p5026
I6234
sVOrExpression
p5027
I53
sVhost
p5028
I1922
sV0xfffe
p5029
I5933
sV0xffff
p5030
I497
sVsocket
p5031
I3739
sVAC3EncodeContext *
p5032
I5540
sVin_len
p5033
I1225
sVchar [ PSK_MAX_IDENTITY_LEN + 1 ]
p5034
I1039
sVbrelse
p5035
I4469
sVnfserr_bad_xdr
p5036
I1330
sV__skb_unlink
p5037
I6298
sVTLSv1_2_server_method
p5038
I376
sVnfsd4_minorversion
p5039
I1336
sVstruct sockaddr_in *
p5040
I1561
sVtxrx_vdev
p5041
I5955
sVfl_ip_dport
p5042
I4885
sV__copy_skb_header
p5043
I1974
sVIAS_KERNEL_ATTR
p5044
I1883
sV!=
p5045
I6185
sVsockc
p5046
I2040
sVget_nat_flag
p5047
I4516
sVSRC_SIZE
p5048
I3567
sVu32 *
p5049
I1427
sVTCP_FASTOPEN_KEY_LENGTH
p5050
I6675
sVPAGE_CACHE_SHIFT
p5051
I4209
sVip6_route_output
p5052
I2183
sVIFF_NO_PI
p5053
I4078
sVav_log
p5054
I3493
sVbus
p5055
I2717
sVSSL_AD_DECODE_ERROR
p5056
I1007
sVxfs_sb_version_hasattr2
p5057
I2969
sVbuf
p5058
I133
sVMNT_NODEV
p5059
I2459
sVprotoff
p5060
I1597
sVsrp_verify_server_param
p5061
I707
sV__in_dev_get_rcu
p5062
I6121
sVskb_put
p5063
I1967
sVa_alt_hnp_support
p5064
I4388
sVtrace_ocfs2_file_splice_write
p5065
I4214
sVCAPI_MSG_BASELEN
p5066
I2723
sVfile_tty
p5067
I6273
sVinet_csk_ack_scheduled
p5068
I4988
sV__in6_dev_get_safely
p5069
I4760
sVERR_PTR
p5070
I4670
sVpid
p5071
I1075
sVrbnode
p5072
I3292
sVYAM_MAXTXTAIL
p5073
I6634
sVsin_family
p5074
I1572
sVuser_ctl_count
p5075
I1385
sVpit
p5076
I2227
sVtruespeech_correlate_filter
p5077
I5714
sVmaster_mcast_ifn
p5078
I3412
sVCHECKSUM_COMPLETE
p5079
I1412
sVcblkno
p5080
I5788
sVdequantization_int
p5081
I5812
sVparse_packet_length
p5082
I3765
sVssl_minor
p5083
I943
sVnoperm
p5084
I6232
sVb_size
p5085
I4411
sVout_len
p5086
I1224
sVmatroska_ebmlnum_sint
p5087
I5643
sVrbio
p5088
I514
sVgfp_mask
p5089
I2388
sVpeer_pkeys
p5090
I641
sVcrtc
p5091
I1366
sVmsgpkt
p5092
I527
sVstruct iovec [ 2 ]
p5093
I2328
sVstruct media_entity_desc
p5094
I2685
sVav_buffer_unref
p5095
I5569
sVwait_on_page_locked
p5096
I4188
sVstruct aac_hba_sgl
p5097
I3949
sVBN_priv_rand_range
p5098
I962
sVdtls1_hm_fragment_new
p5099
I461
sVecdh
p5100
I690
sVencoded_pt_len
p5101
I714
sVipv6h
p5102
I2236
sVnlmsg_len
p5103
I2542
sVsin6_family
p5104
I5500
sVSNDRV_CTL_ELEM_ACCESS_TLV_CALLBACK
p5105
I3697
sVprevious_client_finished_len
p5106
I435
sVmnt
p5107
I2205
sV"mkip clip_vcc %p vcc %p\u005cn"
p5108
I4320
sVxfs_trans_log_inode
p5109
I5319
sVstruct request_queue *
p5110
I1244
sVext4_flex_group_add
p5111
I4424
sVISOFS_SB
p5112
I6376
sVI_MUTEX_PARENT
p5113
I1620
sVRTF_LOCAL
p5114
I6471
sVspin_unlock
p5115
I2579
sVstruct ext4_new_group_data *
p5116
I1447
sValert_dispatch
p5117
I171
sViv_frame
p5118
I5828
sVread_unlock
p5119
I6393
sVbm_bn
p5120
I3274
sVexp_shift
p5121
I5544
sVplayback_rms
p5122
I5059
sVnat_tree_lock
p5123
I6062
sVLMP_PID_HEADER
p5124
I6176
sVZF
p5125
I6364
sVclear_buffer_mapped
p5126
I5459
sVblk_rq_bio_prep
p5127
I2375
sVpath
p5128
I2204
sVTLS1_1_VERSION
p5129
I163
sVVM_NONLINEAR
p5130
I2761
sVstruct rd_dev_sg_table
p5131
I2449
sVssl3_setup_read_buffer
p5132
I349
sV2048
p5133
I4559
sVSSL_aECDSA
p5134
I727
sVENOIOCTLCMD
p5135
I6668
sVround_pipe_size
p5136
I6558
sVCallExpression
p5137
I36
sVFIPS_module_mode
p5138
I924
sVstruct file_lock *
p5139
I1676
sVprintf
p5140
I938
sVprintk
p5141
I4277
sVstruct irda_sock *
p5142
I2337
sVkctl
p5143
I3675
sV"error %d"
p5144
I3318
sVEXT4_INODES_PER_GROUP
p5145
I1473
sVFREE_NIDS
p5146
I2752
sVbt_meta_sectorsize
p5147
I5215
sVYAM_MAXPERSIST
p5148
I6633
sVpriv_data
p5149
I3498
sVcsum_size
p5150
I4040
sVHDSPM_AB_int
p5151
I3629
sVclip_push
p5152
I4299
sVmd
p5153
I483
sVshared_sigalgs
p5154
I597
sV8L
p5155
I5942
sVhm_fragment *
p5156
I318
sVmm
p5157
I1117
sVDTLS1_COOKIE_LENGTH
p5158
I551
sVMNT_LOCK_NOSUID
p5159
I2456
sVext4_std_error
p5160
I1491
sVmp
p5161
I2911
sVinstall
p5162
I4849
sVip_recv_error
p5163
I5502
sVkvm_inject_gp
p5164
I4751
sVmadi_input
p5165
I3628
sVearly_data_count_ok
p5166
I442
sVenc
p5167
I190
sVend
p5168
I1275
sVDX_HASH_TEA
p5169
I4011
sVPGSSubContext *
p5170
I3579
sVmant4_cnt
p5171
I5553
sVstrict_io
p5172
I6245
sVent
p5173
I2675
sValgorithm2
p5174
I477
sVSSL_kPSK
p5175
I725
sVfl_gw
p5176
I4043
sVxfs_swap_extents
p5177
I5035
sVx509
p5178
I640
sVsctp_stream_free
p5179
I6443
sVclip_devs
p5180
I1376
sVEXT3_I
p5181
I4463
sVnfs4_proc_unlck
p5182
I4653
sVSSL_PSK
p5183
I627
sValgorithms
p5184
I648
sV__pin_page
p5185
I6545
sVreloc
p5186
I6320
sV"blocks_count overflow"
p5187
I4455
sVpag_buf_tree
p5188
I2562
sVsk_unhashed
p5189
I4586
sVssl3_setup_buffers
p5190
I338
sVsk_debug
p5191
I6064
sVENOTTY
p5192
I6623
sVisize
p5193
I6691
sVrb_node
p5194
I2572
sVwbio
p5195
I517
sVframe_queue
p5196
I5819
sVOPENSSL_assert
p5197
I565
sVSSL_AD_NO_RENEGOTIATION
p5198
I421
sVget_bits
p5199
I5515
sVEVP_CIPHER_key_length
p5200
I211
sVEVP_PKEY_CTX *
p5201
I758
sVVDADecoderContext *
p5202
I3497
sVfutex_vcache_callback
p5203
I6147
sVmod_timer
p5204
I6279
sVio_type
p5205
I3618
sVtempif
p5206
I5302
sVsctp_packet_append_chunk
p5207
I4229
sVipv6_addr_copy
p5208
I3205
sVexecute2
p5209
I5744
sVrle_bitmap_len
p5210
I3583
sVX509_get_pubkey
p5211
I639
sVASN1_CTX
p5212
I470
sVDBG
p5213
I3851
sVipv6_is_mld
p5214
I2882
sVEVP_CTRL_TLS1_1_MULTIBLOCK_MAX_BUFSIZE
p5215
I237
sVnotifier
p5216
I2306
sVARRAY_SIZE
p5217
I1313
sVframe_rate_index
p5218
I5681
sVtask_unlock
p5219
I1100
sVPKCS8_EMBEDDED_PARAM
p5220
I746
sVSSL_RECEIVED_SHUTDOWN
p5221
I398
sVresidual_count
p5222
I3966
sVBT_CONNECTED
p5223
I1848
sVTIOCM_DSR
p5224
I6563
sVnfs4_proc_getlk
p5225
I4654
sVmac_tmp
p5226
I987
sVCHECKSUM_UNNECESSARY
p5227
I6290
sVfree
p5228
I3103
sVXFS_SB_VERSION_HASDALIGN
p5229
I3165
sV"Error opening resize inode"
p5230
I4457
sV"dma_rx, rxin %d rxout %d, hw_curr %d\u005cn"
p5231
I6113
sVstruct bpf_binary_header *
p5232
I4799
sVmsecs_to_jiffies
p5233
I1544
sVfilter
p5234
I3472
sVinet_dport
p5235
I2031
sVoptval
p5236
I1855
sVprimary
p5237
I1458
sVcoded_height
p5238
I5721
sVSNDRV_CTL_ELEM_ACCESS_READ
p5239
I4710
sVDMA_TRACE
p5240
I6112
sVstruct hdspm_status
p5241
I3641
sVlast_pos
p5242
I3513
sVtos
p5243
I2036
sVtop
p5244
I4030
sVtot
p5245
I221
sVget_current_groups
p5246
I3042
sV"HFC-S USB: D-RX len(%d)"
p5247
I4284
sVext3_error
p5248
I4464
sVMAY_WRITE
p5249
I2423
sValloced
p5250
I4196
sVhdspm_t *
p5251
I5391
sVqmant1_ptr
p5252
I5548
sV__ip_vs_svc_fwm_find
p5253
I6014
sVWIDTH_PADDED
p5254
I3557
sVschedule_timeout
p5255
I6663
sVbridge
p5256
I2803
sVstruct sctp_chunk * *
p5257
I2216
sVDBG_SKB
p5258
I4279
sVstruct sk_filter *
p5259
I4790
sVff_get_buffer
p5260
I5726
sVunsigned char [ EVP_MAX_MD_SIZE * 2 ]
p5261
I998
sVraw
p5262
I2234
sVEVP_sha1
p5263
I1000
sVicmp_route_lookup
p5264
I5167
sV-
p5265
I61
sV"ret = %d\u005cn"
p5266
I2608
sVinit_buf
p5267
I24
sVFUNCTION_DESCR_SIZE
p5268
I6535
sVssl_do_write
p5269
I763
sVswidth
p5270
I2931
sVrt6i_protocol
p5271
I3213
sVstruct fpu *
p5272
I4633
sVff_interlace_init
p5273
I6579
sVsb_uuid
p5274
I2928
sVunsigned int __user *
p5275
I4076
sVpkt
p5276
I536
sVsb_width
p5277
I2932
sVFLOWI_FLAG_CAN_SLEEP
p5278
I3755
sVsk_filter
p5279
I3738
sVswappage
p5280
I1184
sVnfsd4_decode_commit
p5281
I1280
sVsys_ioctl
p5282
I2838
sVaun_seq
p5283
I3127
sVrcv_saddr
p5284
I2296
sVSSL3_VERSION
p5285
I329
sVsystem_sample_rate
p5286
I2151
sVstruct f2fs_sb_info *
p5287
I2398
sVpermute
p5288
I5523
sVicmp_send
p5289
I3293
sVsync_descbuffer_for_device
p5290
I6071
sVsunit
p5291
I2919
sVtaglen
p5292
I4234
sVioarcb
p5293
I1548
sVSSL_OP_NO_TLSv1_2
p5294
I353
sVSSL_OP_NO_TLSv1_1
p5295
I325
sV'x'
p5296
I5855
sVstruct super_block *
p5297
I1467
sVnum
p5298
I645
sVTCP_COOKIE_MAX
p5299
I3460
sVstruct aac_fibhdr
p5300
I3028
sVifr_data
p5301
I1695
sVaddrtype
p5302
I6166
sVerror_length
p5303
I3957
sVIP_VS_ERR
p5304
I6168
sVkvm_register_readl
p5305
I4648
sVnf_ct_unexpect_related
p5306
I4829
sVtransaction_t *
p5307
I1660
sVfault_in_user_writeable
p5308
I2829
sVunsigned char [ 256 ]
p5309
I989
sVip6_pkt_discard
p5310
I3223
sVhfcusb_data *
p5311
I4259
sVbpf_jit_build_body
p5312
I4800
sVnum_ioctls
p5313
I2628
sVxfs_sb_version_hasquota
p5314
I2952
sVIPPROTO_DCCP
p5315
I1831
sVpeer_ecdh_tmp
p5316
I691
sVXFS_FSOP_GEOM_VERSION
p5317
I2972
sVncontroller
p5318
I6053
sVprecno
p5319
I5793
sVstruct sco_conninfo
p5320
I1863
sVpred_order
p5321
I5895
sVstrncpy_from_user
p5322
I2392
sV__munlock_isolated_page
p5323
I5103
sVhlist_add_head_rcu
p5324
I5010
sVcookielen
p5325
I508
sVEVP_DigestUpdate
p5326
I634
sVBN_mod
p5327
I788
sVqueue_dma_alignment
p5328
I2387
sVocfs2_rw_lock
p5329
I1921
sVTUNSETIFINDEX
p5330
I3734
sVavio_close
p5331
I5649
sVstruct ip_options_rcu *
p5332
I2032
sVnf_reset
p5333
I4053
sVpeer_random
p5334
I4173
sVcpu_flags
p5335
I6299
sVtcp_cookie_values_release
p5336
I4945
sVconst SIGALG_LOOKUP *
p5337
I992
sVcurval
p5338
I2810
sVDCCP_PKT_INVALID
p5339
I1838
sVn
p5340
I50
sVsin6_addr
p5341
I5179
sV"JIT code: "
p5342
I4808
sVTCP_ESTABLISHED
p5343
I1509
sViov_count
p5344
I2371
sVsave so we can clean up later
p5345
I3790
sVFIB_LOOKUP_NOREF
p5346
I1633
sVsend_sigio
p5347
I6149
sVget_unaligned_be32
p5348
I3467
sVec_sk
p5349
I3769
sVunprocessed_rcds
p5350
I815
sVossl_statem_set_in_init
p5351
I846
sVDTLS1_MT_HELLO_VERIFY_REQUEST
p5352
I981
sVbig_endian
p5353
I5930
sV""
p5354
I3731
sVrt_src
p5355
I4893
sVaction
p5356
I2355
sVsame_thread_group
p5357
I1133
sV' '
p5358
I604
sV__u8 *
p5359
I1357
sVSSL3_RECORD_get_data
p5360
I424
sVbcmproc_dir
p5361
I2112
sVfrag_off
p5362
I312
sVcifs_acl
p5363
I6218
sVi_size
p5364
I2365
sVfl4_dst
p5365
I4886
sVTCP_CA_NAME_MAX
p5366
I2080
sV__GFP_NOWARN
p5367
I1235
sVmax_data_size
p5368
I6177
sVpagelen
p5369
I1288
sVshmem_recalc_inode
p5370
I4201
sVSSL_R_INVALID_ALERT
p5371
I882
sVSSL_OP_NO_SSLv2
p5372
I817
sVSSL_OP_NO_SSLv3
p5373
I332
sVcreate_proc_read_entry
p5374
I2402
sVtcm_handle
p5375
I1083
sVVOP_FLUSHINVAL_PAGES
p5376
I5383
sVsk_sndbuf
p5377
I3354
sVaclass
p5378
I894
sVtarget_file
p5379
I2418
sVpage_table
p5380
I1391
sV50
p5381
I6664
sVstruct uverbs_attr_bundle *
p5382
I1738
sVxfrm_lookup
p5383
I5478
sVintra_matrix
p5384
I5689
sVHZ
p5385
I3128
sVloopback_dev
p5386
I6485
sVfree_nid_slab
p5387
I4524
sVSSL_C_EXPORT_PKEYLENGTH
p5388
I712
sVshmem_truncate
p5389
I2366
sVclEnqueueUnmapMemObject
p5390
I3601
sVext4_handle_dirty_super
p5391
I4423
sVcnt
p5392
I70
sVuser_mss
p5393
I4924
sVpeer_cert_sigalgs
p5394
I598
sValg2
p5395
I621
sVSSL3_FLAGS_NO_RENEGOTIATE_CIPHERS
p5396
I419
sVchar * *
p5397
I82
sVlog2_chroma_h
p5398
I5611
sVlog2_chroma_w
p5399
I5614
sVparse_pixel_format
p5400
I5728
sVcore
p5401
I6095
sVSSL_USE_SIGALGS
p5402
I688
sVput_compat_shmid64_ds
p5403
I2014
sVASN1_R_TOO_LONG
p5404
I116
sVfree_percpu
p5405
I1687
sVrequeue_futex
p5406
I5975
sVeaction
p5407
I2352
sVEVP_DigestInit_ex
p5408
I642
sVstruct timer_list *
p5409
I3296
sVss_mode
p5410
I6613
sVArgument
p5411
I39
sVuobj_get_obj_read
p5412
I1734
sVwpend_ret
p5413
I243
sV0x1
p5414
I181
sVAF_TIPC
p5415
I6164
sVforce_sig_specific
p5416
I5476
sVuv_h
p5417
I5833
sVHDSPM_MADI_PLAYBACK_PEAK
p5418
I5068
sVnum_links
p5419
I2678
sViter_is_iovec
p5420
I2695
sVstruct drm_clip_rect __user *
p5421
I3071
sVuv_w
p5422
I5835
sVkvm_run
p5423
I2056
sVstruct rb_node * *
p5424
I5988
sVuser_back
p5425
I4310
sVgid
p5426
I1111
sVpmd_t *
p5427
I1392
sVhead
p5428
I1982
sVSKB_FRAG_ASSERT
p5429
I1995
sVWRITE
p5430
I1229
sVreq_len
p5431
I3427
sVkernel_toc
p5432
I4812
sVattr
p5433
I2654
sV__mod_zone_page_state
p5434
I2163
sVHDSPM_TCO1_Video_Input_Format_PAL
p5435
I5072
sVreturn ;
p5436
I1037
sVsg_user
p5437
I3784
sVskb_pull
p5438
I3733
sV__constant_htons
p5439
I4066
sVIP_INC_STATS_BH
p5440
I4891
sVLL_RESERVED_SPACE
p5441
I6134
sVnhoffset
p5442
I5116
sVioa_reset_in_progress
p5443
I1543
sVnh
p5444
I1405
sVno
p5445
I2639
sVnd
p5446
I2431
sVne
p5447
I1731
sVnf
p5448
I3020
sVl1l2
p5449
I4266
sVSSL_PKEY_RSA_ENC
p5450
I472
sVmb_param
p5451
I249
sVb_buffer_length
p5452
I2591
sVb43_rx_buffer_is_poisoned
p5453
I2768
sVnp
p5454
I2286
sVnr
p5455
I2166
sVns
p5456
I6438
sVYAM_BITRATE
p5457
I4690
sVnw
p5458
I229
sVnode
p5459
I1514
sVpicture
p5460
I3581
sVvcache
p5461
I6148
sVfc_prefsrc
p5462
I3206
sVCIFS_MOUNT_NO_BRL
p5463
I6208
sVSetPageUptodate
p5464
I1199
sVstruct inet_opt *
p5465
I4901
sVLAST_IN
p5466
I3035
sVfc_dst_len
p5467
I3193
sVbcm_remove_op
p5468
I4822
sVsecurity_socket_getpeersec
p5469
I6065
sVEC_KEY_set_group
p5470
I722
sVwake_up_interruptible
p5471
I6052
sVs_log_groups_per_flex
p5472
I2521
sVBN_new
p5473
I732
sVpval
p5474
I892
sVREQ_OP_SCSI_IN
p5475
I3173
sVwrite_unlock
p5476
I4563
sVreassembly
p5477
I465
sVssl3_check_cert_and_algorithm
p5478
I689
sVctrl_pdev
p5479
I6586
sVfrag_len
p5480
I308
sV"Invalid DDS header.\u005cn"
p5481
I5950
sVb43_rx
p5482
I6070
sVstruct plist_head *
p5483
I2834
sVslotcnt
p5484
I4688
sVend_pos
p5485
I3514
sVTCP_RECV_QUEUE
p5486
I4955
sVstruct net_device *
p5487
I1698
sVip_route_output_flow
p5488
I1781
sVclientCanCacheAll
p5489
I4567
sVatomic_fetch_sub_explicit
p5490
I5566
sVgid_t [ 2 ]
p5491
I6521
sVDP_F_MINUS
p5492
I602
sV420
p5493
I6600
sV"tty_fasync"
p5494
I5285
sVumin_val
p5495
I4130
sVcurrent_cred
p5496
I5424
sVlevel
p5497
I2083
sVpspace
p5498
I2242
sV"output%d"
p5499
I3477
sVSSL2_MAX_RECORD_LENGTH_3_BYTE_HEADER
p5500
I52
sVenc_write_ctx
p5501
I155
sVPMCRAID_MAX_CDB_LEN
p5502
I3659
sVobsolete
p5503
I3231
sVsrcprefs
p5504
I2180
sVconfig_fn_t
p5505
I2874
sVport
p5506
I1583
sVstruct b43_dmadesc_meta *
p5507
I2773
sVsk_type
p5508
I2343
sVstruct usb_otg_descriptor
p5509
I3879
sVu32
p5510
I1078
sVreply
p5511
I3923
sVBT_CLOSED
p5512
I6046
sVstruct zone *
p5513
I2161
sVocfs2_rw_unlock
p5514
I4212
sVgroups
p5515
I4445
sVcork
p5516
I2023
sVFsaNormal
p5517
I3935
sVossl_statem_get_in_handshake
p5518
I393
sVstruct cifsLockInfo *
p5519
I4553
sVcodec_id
p5520
I5912
sVusg32
p5521
I3945
sVDR6_BD
p5522
I4638
sVwrite_sequence
p5523
I238
sVcache
p5524
I5411
sVunlock_super
p5525
I4444
sVsk_peek_off
p5526
I3351
sVparms
p5527
I6363
sVunsigned char [ 128 ]
p5528
I2842
sVpref
p5529
I3560
sVmss
p5530
I1972
sVmsr
p5531
I1664
sVprec
p5532
I5789
sVhandler
p5533
I2052
sVmemory
p5534
I2805
sVmsg
p5535
I1498
sVprev
p5536
I1416
sVblk_put_request
p5537
I3327
sVDUMP_PREFIX_ADDRESS
p5538
I4809
sVfc_table
p5539
I3204
sV__sk_nulls_add_node_rcu
p5540
I4580
sVExpression
p5541
I2249
sVstruct rpc_cred *
p5542
I5404
sVdst_cl_buf
p5543
I3594
sVdev_hard_header
p5544
I6125
sVNR_MLOCK
p5545
I2164
sVdx_release
p5546
I4019
sVirda_open_tsap
p5547
I1873
sVLOOKUP_OPEN
p5548
I5425
sVdecoders
p5549
I1335
sVsnd_ctl_build_ioff
p5550
I3681
sVFS_USERNS_DEV_MOUNT
p5551
I2465
sVdo_compress
p5552
I197
sV1
p5553
I15
sVRSA_new
p5554
I997
sVnl_u
p5555
I5489
sVtcfd_datalen
p5556
I5221
sV"command failed with %x\u005cn"
p5557
I4502
sVskb_get
p5558
I4301
sVssl3_release_write_buffer
p5559
I957
sVfrom_kuid
p5560
I6427
sValert_level
p5561
I409
sVframe_rate
p5562
I5670
sVSIOCYAMGCFG
p5563
I2094
sV0x10000
p5564
I2237
sVfq_kill
p5565
I5121
sVin6_ifa_put
p5566
I5112
sV"closing last open instance for inode %p"
p5567
I4570
sVuent
p5568
I2671
sVpcpu_count
p5569
I5024
sV124
p5570
I5735
sVplayback_peaks
p5571
I5067
sVINET6_PROTO_FINAL
p5572
I2896
sVstruct ext4_super_block
p5573
I4415
sVhost_request_flag
p5574
I3898
sVwpend_type
p5575
I231
sVssl_set_handshake_header
p5576
I290
sVsize_t
p5577
I80
sVLISTEN_SEND_VERIFY_REQUEST
p5578
I535
sVlogsunit
p5579
I2923
sVinet6_protos
p5580
I2895
sVswp_entry_t *
p5581
I1214
sVstruct sg_iovec *
p5582
I2374
sVnfsd4_decode_access
p5583
I1289
sVget_unaligned_be16
p5584
I1364
sVchroma_intra_matrix
p5585
I5688
sVEVP_CTRL_TLS1_1_MULTIBLOCK_PARAM
p5586
I262
sVsctp_packet_reset
p5587
I4232
sVpklen
p5588
I748
sVstruct hidp_session *
p5589
I2705
sVskb_set_network_header
p5590
I1970
sVclear_buffer_new
p5591
I5458
sVname
p5592
I1518
sV_XBF_DELWRI_Q
p5593
I2588
sVdrop_frame
p5594
I5089
sVSplitContext *
p5595
I3473
sV_IOC_SIZE
p5596
I2604
sVnla_type
p5597
I6477
sVmem_cgroup_uncharge_cache_page
p5598
I1952
sVstruct b43_dmadesc_generic *
p5599
I6077
sVlinesize
p5600
I5732
sVMAX_TCP_SYNCNT
p5601
I4977
sVnid_t
p5602
I2395
sVmax_send_fragment
p5603
I222
sVstrlcpy
p5604
I2684
sVs_freeclusters_counter
p5605
I4433
sVNFS_ATTRTIMEO
p5606
I5416
sVh264_initialized
p5607
I5507
sVsctp
p5608
I4715
sVip_route_input_noref
p5609
I3283
sVu_int32_t
p5610
I1928
sVqmant
p5611
I5546
sV"owner set to %u\u005cn"
p5612
I6426
sVstruct tcp_repair_opt __user *
p5613
I4953
sVin6_dev_get
p5614
I3242
sVF_RDLCK
p5615
I4667
sVICMP_DEST_UNREACH
p5616
I4061
sVi_sb
p5617
I1194
sVtest_bit
p5618
I1865
sVjournal_t *
p5619
I1653
sVinet_frag_kill
p5620
I5126
sV1000
p5621
I4506
sVtotal_len
p5622
I1924
sVinet_frag_pull_head
p5623
I6500
sVpeer_cert_sigalgslen
p5624
I601
sVseq64
p5625
I501
sVtruespeech_update_filters
p5626
I3554
sVYAM_TXDELAY
p5627
I6643
sVSOCK_DGRAM
p5628
I2341
sVstruct ip_vs_get_dests *
p5629
I6010
sVstruct ifreq
p5630
I3079
sVXFS_SB_VERSION_HASALIGN
p5631
I3164
sVis_tls13
p5632
I455
sVhidp_output_raw_report
p5633
I2714
sVskb_in
p5634
I2256
sVFIRST_NFS4_OP
p5635
I3180
sVoptname
p5636
I1857
sVstruct neighbour *
p5637
I2188
sVcopy
p5638
I1380
sVmnt_cifs_flags
p5639
I6187
sVnb_codeblocks_width
p5640
I5790
sVr
p5641
I785
sVsave_syn
p5642
I4967
sV~cpu_to_le32
p5643
I3817
sVemulated_msrs
p5644
I4247
sVDMA_FROM_DEVICE
p5645
I3802
sVecryptfs_parse_packet_length
p5646
I1155
sVTCPF_CLOSE
p5647
I4981
sVSSL_OP_NO_RENEGOTIATION
p5648
I436
sVprk
p5649
I913
sVread_bytes
p5650
I380
sVprv
p5651
I6416
sVssnmap
p5652
I4186
sVdumpable
p5653
I1122
sVadd_cmd_param_length
p5654
I3656
sVDTLS1_VERSION
p5655
I270
sVDMA_TO_DEVICE
p5656
I3804
sVASN1_TYPE_cmp
p5657
I840
sVRSMBLY_BITMASK_IS_COMPLETE
p5658
I885
sVUDP_INC_STATS_USER
p5659
I4905
sVhdspm_version
p5660
I3613
sVs_log_zone_size
p5661
I6323
sVbalance_dirty_pages_ratelimited_nr
p5662
I4211
sVhdspm_line_out
p5663
I2140
sVavbuf
p5664
I5559
sVPAGE_MASK
p5665
I6260
sVFS_BINARY_MOUNTDATA
p5666
I2470
sV"aio: error allocating ioctx %p\u005cn"
p5667
I5004
sVlut
p5668
I5578
sVstruct ipv6_pinfo *
p5669
I5184
sVssl3_setup_write_buffer
p5670
I169
sV"cmd %x arg %lx"
p5671
I6560
sVgfp_t
p5672
I1752
sVrq_cachetype
p5673
I3182
sVkVDADecoderNoErr
p5674
I3499
sVnla
p5675
I3240
sVMNT_LOCK_ATIME
p5676
I2452
sVnlh
p5677
I1073
sVsearch_resume_name
p5678
I4541
sVdst_pid
p5679
I6139
sVbatostr
p5680
I2709
sV_IOC_TYPE
p5681
I1067
sVmsg_namelen
p5682
I1499
sVsync_descbuffer_for_cpu
p5683
I6074
sVPQ_64BIT
p5684
I504
sVsock_i_ino
p5685
I2105
sVwValue
p5686
I3868
sVext3_journal_get_write_access
p5687
I3978
sVXFRM_POLICY_IN
p5688
I2886
sVstruct rd_dev_sg_table *
p5689
I2448
sVINET_FRAG_FIRST_IN
p5690
I2758
sVSSL3_RECORD_set_length
p5691
I865
sVfl_end
p5692
I1679
sVCIFS_MOUNT_NOPOSIXBRL
p5693
I6194
sVsk_SSL_CIPHER_dup
p5694
I584
sVcurr_rec
p5695
I381
sVskb_transport_offset
p5696
I2894
sVstruct fib *
p5697
I3032
sVmapped
p5698
I3591
sVbs_mtime
p5699
I5363
sVrms
p5700
I5396
sVslottime
p5701
I1705
sVget_net_ns
p5702
I6437
sVbio_set_flag
p5703
I6413
sVDH_free
p5704
I633
sVMPV_common_end
p5705
I5700
sVsk_write_queue
p5706
I1821
sVgetattr
p5707
I1279
sVUDP_INC_STATS
p5708
I4907
sVdrm_vblank_get
p5709
I4298
sVcomp
p5710
I5583
sVtask_pid_nr
p5711
I5992
sVnqueued
p5712
I2808
sVrcu_dereference
p5713
I2030
sVvma_stop
p5714
I6032
sVPX
p5715
I6359
sVec_tx_done
p5716
I6130
sVnqueues
p5717
I6447
sVJpeg2000Prec *
p5718
I5792
sVxfs_trans_set_sync
p5719
I5324
sVSSL_F_GET_CLIENT_HELLO
p5720
I41
sVnf_nat_follow_master
p5721
I1587
sVntsc
p5722
I5085
sVsb_logsunit
p5723
I2924
sVtbhp
p5724
I5351
sVcolor
p5725
I6306
sVvnode_t *
p5726
I5377
sVpos
p5727
I1925
sVpop
p5728
I4304
sVicmp_xmit_unlock
p5729
I2258
sV60
p5730
I3553
sVfl4_stack
p5731
I2027
sV64
p5732
I2707
sViterations
p5733
I3546
sV"cannot mangle packet"
p5734
I4831
sVadapter_info
p5735
I3773
sVstruct kiocb *
p5736
I1564
sVu16
p5737
I1096
sVdirection
p5738
I3671
sVScsiPortCommand64
p5739
I3938
sVndsa
p5740
I1024
sVrd_allocate_sgl_table
p5741
I2437
sVclear_buffer_dirty
p5742
I5449
sVCIFS_MOUNT_MULTIUSER
p5743
I6239
sVAVStream *
p5744
I5654
sVconfig_set
p5745
I2878
sVstruct sgentry64
p5746
I3799
sVBN_MONT_CTX_set_locked
p5747
I795
sVstruct usb_qualifier_descriptor
p5748
I3896
sVxfs_trans_t *
p5749
I5380
sVconst struct in6_addr *
p5750
I2295
sVgadget_is_dualspeed
p5751
I3872
sVaac_fib_init
p5752
I6286
sVnlmsg_trim
p5753
I4107
sV'd'
p5754
I5850
sVsctp_style
p5755
I4162
sVrhashtable_insert_fast
p5756
I5210
sVINET_FRAG_LAST_IN
p5757
I1419
sVcERROR
p5758
I6225
sVstatus
p5759
I1263
sVrcv_nxt
p5760
I4963
sVdriver
p5761
I2512
sVrt2
p5762
I5480
sVparse_waveformatex
p5763
I5926
sVunion sctp_addr
p5764
I1754
sVext4_alloc_flex_bg_array
p5765
I4447
sVSTACK_OF
p5766
I1034
sVsample_rate
p5767
I5918
sVAVERROR
p5768
I6602
sVmodel
p5769
I5531
sVXFS_FSOP_GEOM_FLAGS_SECTOR
p5770
I2959
sVstruct sgmap *
p5771
I3937
sVpvec_putback
p5772
I2168
sVstruct ext4_group_desc *
p5773
I1469
sVstruct pspace *
p5774
I2246
sVtip
p5775
I5036
sVstruct sco_options
p5776
I6658
sVHEADER_SIZE
p5777
I95
sVprivate_data
p5778
I1365
sVNETLINK_CB
p5779
I6140
sVNGROUPS_PER_BLOCK
p5780
I3048
sV0xFFFF
p5781
I6574
sVctx_lock
p5782
I5021
sVtxflt
p5783
I4083
sVsamples
p5784
I3549
sVstruct hdspm_peak_rms *
p5785
I5077
sVuserfaultfd_missing
p5786
I4369
sVit_nexus
p5787
I3915
sVchain_lock
p5788
I3016
sVw_length
p5789
I3836
sVxfs_sb_version_hasshared
p5790
I2958
sVsctp_scope_t
p5791
I6648
sVdir_mode
p5792
I6200
sVendoff
p5793
I4599
sVset_pte_at
p5794
I4341
sVSSL_F_SSL3_READ_BYTES
p5795
I861
sVsequence_desc
p5796
I3586
sVPKCS8_pkey_get0
p5797
I747
sVto_mirred
p5798
I4858
sVirlmp_register_service
p5799
I6183
sVpipe_set_size
p5800
I1760
sVfill_ext_prop
p5801
I3855
sV"flen=%d proglen=%u pass=%d image=%p\u005cn"
p5802
I4814
sV9600
p5803
I4683
sVavctx
p5804
I3480
sV"%d"
p5805
I859
sVb_pag
p5806
I2559
sVmsr_list
p5807
I4250
sV"%s: dma_rx: bad frame length (%d)\u005cn"
p5808
I6111
sVconst struct hidp_connadd_req *
p5809
I3264
sV__IP_INC_STATS
p5810
I6501
sVVM_LOCKED
p5811
I2760
sVrhashtable_lookup_fast
p5812
I5205
sVok
p5813
I323
sVdtls1_buffer_handshake_fragment
p5814
I952
sVbhv_desc_t *
p5815
I5369
sVopenclutils
p5816
I3603
sVXFS_IFORK_Q
p5817
I5333
sVSSL3_RT_MAX_ENCRYPTED_LENGTH
p5818
I503
sVDRM_MODE_OBJECT_FB
p5819
I3076
sVdest_offset
p5820
I4325
sVNFSIOS_VFSACCESS
p5821
I5433
sVFlacSubframe *
p5822
I5899
sVMSG_CONFIRM
p5823
I1806
sVmsgpayload
p5824
I532
sVremove_proc_entry
p5825
I2304
sVsctp_assoc_sync_pmtu
p5826
I6457
sVpq_64bit_assign_word
p5827
I557
sVinode_double_lock
p5828
I4612
sVSSL_IS_TLS13
p5829
I439
sVpskb_trim_rcsum
p5830
I1410
sV"give to committing trans"
p5831
I5442
sV1024
p5832
I359
sVJpeg2000CodingStyle *
p5833
I5777
sVsctp_addto_chunk_fixed
p5834
I2501
sVav_buffer_ref
p5835
I5874
sVrt6i_flags
p5836
I3201
sVif_u2
p5837
I5300
sVREAD_ELEMENT_STATUS_TIMEOUT
p5838
I3337
sVpr_info
p5839
I4813
sVif_u1
p5840
I5299
sVicmpv4_global_allow
p5841
I2262
sVstruct pipe_inode_info *
p5842
I1614
sVnfsd4_decode_putfh
p5843
I1323
sVfc_type
p5844
I6491
sV"GET "
p5845
I366
sVVAR_VAL
p5846
I5591
sVSIOCDEVPRIVATE
p5847
I1691
sVstruct mount *
p5848
I2214
sVtxtail
p5849
I1707
sVidev
p5850
I1894
sVbytestream2_get_bytes_left
p5851
I5739
sVff_vector_fmul_window_altivec
p5852
I5877
sVDTLS1_HM_FRAGMENT_RETRY
p5853
I991
sVREAD_BUF
p5854
I4237
sVnfs_ok
p5855
I1327
sV5
p5856
I194
sVRT6_LOOKUP_F_IFACE
p5857
I2196
sVsnd_hwdep_t *
p5858
I2420
sVblk_verify_command
p5859
I3320
sV4096
p5860
I6214
sVlock_ctx
p5861
I5629
sVstruct pid_namespace *
p5862
I1897
sVstruct nameidata *
p5863
I2430
sVract_vlc
p5864
I5527
sVmax_packet_size
p5865
I1150
sVskbp
p5866
I2240
sV__NET_INC_STATS
p5867
I5204
sVsession_id
p5868
I273
sVHFCUSB_DBG_VERBOSE_USB
p5869
I4280
sVMAX_CONFIG_INTERFACES
p5870
I4379
sVnfs4_retry_setlk
p5871
I4660
sVall
p5872
I5191
sVmatch_futex
p5873
I2836
sVIFF_TAP
p5874
I4077
sVmake_kgid
p5875
I3741
sValg
p5876
I647
sVsock_sendmsg
p5877
I2320
sVdisk
p5878
I1247
sVptr
p5879
I1021
sVPRIV
p5880
I4318
sVSSL_MAX_MASTER_KEY_LENGTH
p5881
I214
sVIS_APPEND
p5882
I2855
sVavio_rl32
p5883
I5924
sVuint8_t
p5884
I3588
sVinit
p5885
I3482
sVwrite_access
p5886
I2076
sV"HEAD "
p5887
I368
sVstruct list_head *
p5888
I1362
sVstruct pt_regs *
p5889
I1340
sVsnd_magic_kcalloc
p5890
I4635
sVmov_write_stbl_tag
p5891
I5858
sVmajormanuversion
p5892
I2737
sVshmem_unacct_blocks
p5893
I4197
sVEC_KEY *
p5894
I761
sVdccph_type
p5895
I1839
sVblock_align
p5896
I5922
sVAVDictionary *
p5897
I5508
sVlist
p5898
I3018
sVconst struct ipv6_pinfo *
p5899
I2285
sV"DMA RX: setup_rx_descbuffer() failed\u005cn"
p5900
I6116
sVext4_has_feature_resize_inode
p5901
I4436
sVXFS_SB_VERSION_HASQUOTA
p5902
I3163
sVVAR_W
p5903
I5580
sVf2fs_kmem_cache_alloc
p5904
I4523
sV__uint64_t
p5905
I5310
sVstruct agp_memory *
p5906
I2797
sVcompat_ptr
p5907
I2841
sVPID_LCP
p5908
I3430
sVmnt_dir_mode
p5909
I6199
sVxfs_sb_version_hasnlink
p5910
I2950
sVnum_clips
p5911
I3069
sVasn1_check_eoc
p5912
I910
sVxfs_buf_t *
p5913
I2556
sVsub
p5914
I5897
sVudata_indication
p5915
I3385
sVpage_end_offset
p5916
I6169
sVversion
p5917
I9
sVOBJ_cmp
p5918
I829
sVtcf_mirred_dev_dereference
p5919
I4864
sVNFSD4_MAX_TAGLEN
p5920
I4233
sVSIOCYAMSCFG
p5921
I6647
sVEXT4_ERROR_INODE
p5922
I4472
sVDR7_BP_EN_MASK
p5923
I4916
sVxfs_inval_cached_pages
p5924
I5334
sVwrite_hash
p5925
I154
sVpadlen
p5926
I69
sVcompressed
p5927
I5740
sVmark_wake_futex
p5928
I5977
sV"Unknown ioctl %08x\u005cn"
p5929
I6551
sVumax_val
p5930
I4147
sVstruct ipcm_cookie
p5931
I1809
sVconst SSL_METHOD *
p5932
I1038
sVsk_SSL_CIPHER_value
p5933
I579
sVinitialize_dirent_tail
p5934
I4039
sVEVP_PKEY_EC
p5935
I969
sVoptions
p5936
I288
sVrt_waiter
p5937
I5972
sVDRM_MASTER
p5938
I2617
sVsnum
p5939
I5641
sVrt6i_gateway
p5940
I3219
sVfib_data
p5941
I3813
sVsir_name
p5942
I1876
sVpacket_size
p5943
I1151
sVeff_db
p5944
I2067
sVncomponents
p5945
I5782
sVdma_frames
p5946
I6089
sVminor
p5947
I2621
sVSCTP_EVENT_T_OTHER
p5948
I3278
sVioa_state
p5949
I1540
sVTUNSETIFF
p5950
I1065
sVSSL_NOTHING
p5951
I256
sVflag
p5952
I5146
sVbit_exact
p5953
I5885
sVO_SYNC
p5954
I4202
sVfps_2997
p5955
I5091
sVInclusiveOrExpression
p5956
I351
sVnetwork_header
p5957
I1964
sVget_frag_bucket_locked
p5958
I3013
sVOPENSSL_strnlen
p5959
I86
sVv
p5960
I346
sVsrc_qp
p5961
I2124
sVdata_len
p5962
I1980
sVedev
p5963
I3080
sVsock_gen_cookie
p5964
I3366
sVNFS_CAP_ATOMIC_OPEN
p5965
I5431
sVpte_unmap
p5966
I4359
sVcompat_alloc_user_space
p5967
I4878
sVaac_fib_send
p5968
I3933
sVstruct SL_component *
p5969
I6335
sVnf_debug
p5970
I4047
sVEVP_MD_name
p5971
I973
sVNEXTHDR_HOP
p5972
I3120
sVpte_unmap_unlock
p5973
I4339
sVsctp_outq_free
p5974
I4179
sVsb_unit
p5975
I2920
sVdi_flags
p5976
I5339
sVreserved_blocks
p5977
I4413
sVPKCS8_PRIV_KEY_INFO *
p5978
I741
sVserver_finished_label
p5979
I773
sVdev_class
p5980
I1862
sVbuf_overrun
p5981
I5225
sVbio_map_user_iov
p5982
I2372
sVpvec
p5983
I2170
sVshort
p5984
I1048
sVdentry
p5985
I1612
sVKVM_GUESTDBG_USE_HW_BP
p5986
I2068
sVfdget
p5987
I5044
sVtsap
p5988
I2334
sVtcf_refcnt
p5989
I2346
sVsk_v6_daddr
p5990
I2303
sVdi_nextents
p5991
I5309
sVhidp_get_raw_report
p5992
I2720
sVmutex_unlock
p5993
I1126
sVRECORD_LAYER_get_numrpipes
p5994
I394
sVstruct video_spu_palette
p5995
I6003
sV50000
p5996
I4560
sVstruct ip_vs_daemon_user [ 2 ]
p5997
I3406
sVrandomize_buffers
p5998
I3568
sValert_descr
p5999
I389
sVdev_alloc_skb
p6000
I1355
sV__u8 [ TCP_FASTOPEN_KEY_LENGTH ]
p6001
I6674
sVrxout
p6002
I6109
sVchar [ 32 ]
p6003
I3476
sVip6_frag_lru_list
p6004
I6291
sVpingpong
p6005
I4930
sVip_vs_copy_service
p6006
I6013
sVsg_table_count
p6007
I2441
sVfl_nspid
p6008
I5275
sVtrace_kvm_msr_write
p6009
I4755
sVget_futex_key
p6010
I2811
sVzone_pgdat
p6011
I6314
sVpage_address
p6012
I1299
sVCL_SUCCESS
p6013
I3605
sVtcf_tm_dump
p6014
I4859
sVstruct fib_result_nl *
p6015
I1637
sVO_APPEND
p6016
I2411
sVEXT4_I
p6017
I3089
sVxfs_sb_version_hasextflgbit
p6018
I2960
sV96000
p6019
I5101
sVstruct async_struct *
p6020
I4870
sVreq_match
p6021
I4370
sVpsize
p6022
I5909
sVcookie
p6023
I284
sVpqueue_pop
p6024
I765
sVAX25_ADDR_LEN
p6025
I3716
sV__snd_ctl_add
p6026
I3702
sVunsigned int
p6027
I138
sVstruct buffer_head *
p6028
I1484
sVUSEC_PER_SEC
p6029
I5155
sVhbacmd_size
p6030
I3948
sVipprot
p6031
I2887
sVpub_key
p6032
I672
sVMAY_EXEC
p6033
I2422
sVAV_CODEC_ID_AAC_LATM
p6034
I5916
sVtcp_rtt_estimator
p6035
I5148
sVskb_zerocopy_clone
p6036
I1627
sVnotify
p6037
I2331
sVSRB_STATUS_SUCCESS
p6038
I3929
sVget_format
p6039
I3488
sVactive_reqs
p6040
I5019
sVtcp_time_stamp_raw
p6041
I4966
sVinode_double_unlock
p6042
I1616
sVEFAULT
p6043
I3333
sVrt6i_table
p6044
I3236
sVpercpu_counter_add
p6045
I4416
sVSSL3_RT_MAX_COMPRESSED_LENGTH
p6046
I937
sVAVPacket *
p6047
I3542
sVnum_encrypted_key_bytes
p6048
I475
sVCAPI_FUNCTION_LOOPBACK
p6049
I6054
sVvmtruncate_range
p6050
I4598
sVRC_REPLBUFF
p6051
I3183
sVpmd
p6052
I1393
sVmay_free
p6053
I5439
sVdouble
p6054
I6514
sVkinv
p6055
I784
sVproc_ptrace_connector
p6056
I4780
sVstruct yamdrv_ioctl_cfg
p6057
I1697
sVget_page
p6058
I1985
sVstruct tc_action *
p6059
I2360
sVfuncs1
p6060
I5598
sVstale
p6061
I4725
sVsctp_ssnmap_free
p6062
I4185
sVEXT4_INDEX_FL
p6063
I4467
sVSSL2_MT_ERROR
p6064
I586
sVssl_major
p6065
I944
sV"ignored: set checksum %s\u005cn"
p6066
I4088
sVdelta_us
p6067
I5153
sVvzalloc
p6068
I5493
sVnf_l4proto_log_invalid
p6069
I4732
sVstruct inet_frags *
p6070
I3009
sVsctp_mtu_payload
p6071
I6463
sVstruct path *
p6072
I2208
sVbufm
p6073
I510
sVluma_pixels
p6074
I5841
sVprint_hex_dump
p6075
I4806
sVmnt_root
p6076
I2211
sVstruct tcmsg *
p6077
I1093
sVmd_ctx
p6078
I635
sVfree_nid_root
p6079
I6058
sVTSContext *
p6080
I5710
sVrepair_queue
p6081
I4956
sVstruct snd_kcontrol * *
p6082
I4239
sV"ping_recvmsg -> %d\u005cn"
p6083
I5194
sVSEQ_NUM_SIZE
p6084
I546
sVnfs_do_access
p6085
I5398
sVnlmsg_data
p6086
I1933
sVcdb
p6087
I3660
sV"nf_ct_dccp: bad checksum coverage "
p6088
I4736
sVMAX_INET_PROTOS
p6089
I2897
sVext4_lblk_t
p6090
I3097
sVvm_mm
p6091
I2850
sVNFS_INO_INVALID_ATTR
p6092
I5414
sV"Option %s not found.\u005cn"
p6093
I5512
sVcdx
p6094
I5786
sVIS_ERR_OR_NULL
p6095
I3757
sVb43legacy_rx
p6096
I6080
sVnet_ns
p6097
I4096
sVunsigned int *
p6098
I426
sVifr_flags
p6099
I3736
sVTF_CREATE
p6100
I6353
sVhit
p6101
I571
sVRDF_NULLIO
p6102
I2444
sVuaddr_len
p6103
I1511
sVfill_ext_compat
p6104
I3858
sVhid
p6105
I2699
sVtcp
p6106
I1584
sVhif
p6107
I4267
sVERR_add_error_data
p6108
I1057
sVip_route_output_key
p6109
I5482
sVu32_min_value
p6110
I4131
sVtcf_index
p6111
I2358
sVskbuff
p6112
I1353
sVdi_ctime
p6113
I5360
sVatomic_add
p6114
I4419
sVanon_vma_prepare
p6115
I2073
sVdump
p6116
I1079
sVradix_tree_insert
p6117
I6057
sVTCPF_CLOSE_WAIT
p6118
I4987
sVAVHWDeviceContext *
p6119
I5623
sVHDSPM_TCO1_Video_Input_Format_NTSC
p6120
I5071
sValgorithm_mkey
p6121
I628
sVarg
p6122
I1069
sVkvm_write_guest
p6123
I5248
sVgwa_type
p6124
I6482
sVinet_twsk_put
p6125
I4575
sVinput_rms
p6126
I5062
sVminormanuversion
p6127
I2724
sVRAND_pseudo_bytes
p6128
I218
sVmax_blocks
p6129
I1208
sVVAR_CLIPVAL
p6130
I5599
sVstruct cifsSesInfo *
p6131
I1524
sVhost_initiated
p6132
I2499
sVunaligned
p6133
I2385
sVporder
p6134
I5904
sVsnd_ctl_elem_user_enum_info
p6135
I3685
sV"%.2x "
p6136
I4278
sVoutfile
p6137
I5653
sVsend_connection_binding
p6138
I416
sVc
p6139
I97
sVsglist
p6140
I4491
sVstruct bcm_sock *
p6141
I2110
sVcontext
p6142
I3865
sV"multiple resizers run on filesystem!"
p6143
I4441
sVrd_size
p6144
I2704
sVresource_handle
p6145
I3664
sVUbuf
p6146
I5827
sVstruct usb_otg20_descriptor
p6147
I3880
sVkill_pgrp_info
p6148
I6496
sVrequeue_pi_key
p6149
I5971
sV__ip_route_output_key
p6150
I5481
sVxfs_sb_version_hasftype
p6151
I2984
sVIPSTATS_MIB_REASMTIMEOUT
p6152
I6066
sVuser_id
p6153
I4677
sVoutbuf
p6154
I4703
sVpt
p6155
I5518
sVNF_INET_PRE_ROUTING
p6156
I1827
sVpb
p6157
I124
sVENOMEM
p6158
I1210
sVpf
p6159
I1832
sVpg
p6160
I2844
sVblk_rq_map_kern
p6161
I3322
sVpm
p6162
I1014
sVexit_qualification
p6163
I1670
sVbuflen
p6164
I1551
sVos_desc_req
p6165
I3864
sVprecision
p6166
I5787
sVvar32_off
p6167
I4143
sVAAC_OPT_SGMAP_HOST64
p6168
I3772
sVINIT_DELAYED_WORK
p6169
I5014
sVXFS_SB_VERSION_HASATTR
p6170
I3161
sVhandshake_fragment_len
p6171
I386
sVConditionalExpression
p6172
I87
sVs_groups_count
p6173
I1466
sVorig_eof
p6174
I6257
sVp8
p6175
I742
sVkzalloc
p6176
I1245
sVblk_get_request
p6177
I1227
sVd2i_DSAparams
p6178
I1012
sVpr_debug
p6179
I3378
sVbytestream_get_be16
p6180
I3585
sVskip_bits
p6181
I5699
sVHFCUSB_DBG_FIFO_ERR
p6182
I4281
sVcookie_preserve_enable
p6183
I4714
sVfib6_info_release
p6184
I3148
sVsgid
p6185
I1113
sVrid
p6186
I830
sVPTRACE_O_MASK
p6187
I1904
sVauthenticated
p6188
I2616
sVnfsd4_decode_read
p6189
I1282
sVluma_width
p6190
I5832
sVmsg_hdr
p6191
I458
sVEXT4_DESC_PER_BLOCK_BITS
p6192
I2780
sV9
p6193
I31
sVIPTOS_TOS_MASK
p6194
I5175
sV0xFF00
p6195
I983
sVmatroska_ebmlnum_uint
p6196
I5644
sVBN_free
p6197
I735
sVPTR_ERR
p6198
I1204
sVssl_cipher_get_evp
p6199
I482
sVcommand_queue
p6200
I3598
sVxfrm6_tunnel_handler
p6201
I3003
sVdst_known
p6202
I4144
sVbnep_del_connection
p6203
I6654
sVLOOKUP_ACCESS
p6204
I2696
sVstruct pmcraid_passthrough_ioctl_buffer
p6205
I1536
sVdport
p6206
I1802
sVMNT_NOSUID
p6207
I2457
sVstruct agp_bridge_data *
p6208
I2802
sVagblocks
p6209
I2978
sVCAP_IPC_LOCK
p6210
I4124
sVmref
p6211
I3561
sVvp6_get_nb_null
p6212
I5529
sVcancel_cmd
p6213
I4488
sV"persist %s\u005cn"
p6214
I4085
sVedipartyname_cmp
p6215
I964
sVbindcnt
p6216
I2348
sVlocks_unlink_lock
p6217
I6251
sVdatablocks
p6218
I2909
sVvendor
p6219
I2702
sVdrm_ioctls
p6220
I2613
sVasocs
p6221
I3158
sVAVFloatDSPContext *
p6222
I5875
sVinteger
p6223
I1019
sVETH_ALEN
p6224
I3310
sVHDSPM_MADI_INPUT_RMS_H
p6225
I5064
sVstruct snd_ctl_elem_info *
p6226
I1387
sVHDSPM_MADI_INPUT_RMS_L
p6227
I5063
sVSSL_MAX_KEY_ARG_LENGTH
p6228
I217
sVaccess_ok
p6229
I1432
sVcsum_start
p6230
I1989
sVASN1_VALUE * *
p6231
I898
sVrb_erase
p6232
I6503
sVqmant4_ptr
p6233
I5550
sVmultiuser
p6234
I6243
sVstruct b43legacy_dmaring *
p6235
I2774
sVPACKET_buf_init
p6236
I450
sVtcp_repair_set_window
p6237
I4965
sVTUNSETQUEUE
p6238
I3153
sVSOCK_FILTER_LOCKED
p6239
I3345
sVrt6i_prefsrc
p6240
I3207
sVs_flex_groups
p6241
I2782
sVprog
p6242
I4798
sVBUF_strndup
p6243
I699
sVfragments
p6244
I1418
sVmd_buf
p6245
I665
sVcmd_done
p6246
I4509
sVstruct flowi4 *
p6247
I2021
sVIP6_RT_PRIO_USER
p6248
I3208
sVstruct yam_port *
p6249
I1699
sVuser_srb
p6250
I3022
sVrange
p6251
I3188
sVi_df
p6252
I5296
sVAF_INET6
p6253
I1575
sVff_vector_fmul_add_altivec
p6254
I5881
sVskb_clone
p6255
I2540
sVsysctl_tcp_cookie_size
p6256
I3456
sVpi_mutex
p6257
I5974
sVtty_io_error
p6258
I4874
sVinet_frag_evicting
p6259
I6507
sVread_wait
p6260
I5290
sVlong
p6261
I127
sVnla_put_string
p6262
I4833
sVstruct futex_q *
p6263
I2817
sVdelta
p6264
I5154
sVgid_t
p6265
I3299
sVmaxpacket
p6266
I3891
sVjobctl
p6267
I4779
sVemb_data_desc_count
p6268
I3951
sVrpc_lookup_cred
p6269
I5410
sVvoid *
p6270
I1029
sVframe_invalid
p6271
I5082
sVz
p6272
I580
sVEROFS
p6273
I6040
sVuser_msr_list
p6274
I4245
sVstruct ipv6hdr *
p6275
I3001
sV"nf_nat_irc: inserting '%s' == %pI4, port %u\u005cn"
p6276
I3379
sVsk_rcvbuf
p6277
I3359
sVPACKET_copy_bytes
p6278
I548
sVMIN_NAPI_ID
p6279
I3368
sVgrt
p6280
I6474
sVbuffered_app_data
p6281
I812
sVstruct ext4_filename *
p6282
I4023
sVperf_config_system
p6283
I6702
sVstruct aac_srb_reply __user *
p6284
I6282
sVcan_checksum_protocol
p6285
I4618
sVssl_add_clienthello_tlsext
p6286
I275
sVusers
p6287
I2093
sVpktcnt
p6288
I6698
sVsa_data
p6289
I3311
sVatomic_fetch_sub
p6290
I5573
sVREQ_OP_SCSI_OUT
p6291
I3172
sVipv4_address
p6292
I4722
sVxfs_perag_put
p6293
I2578
sV"all ports in use"
p6294
I4832
sVbcm_sk
p6295
I2111
sVV_ASN1_INTEGER
p6296
I1025
sVhooknum
p6297
I1825
sVxfs_buf_cond_lock
p6298
I2589
sVstruct sockaddr_ax25 *
p6299
I2404
sVAtom *
p6300
I5658
sVbg_free_blocks_count
p6301
I1454
sVstruct pid *
p6302
I5293
sVSRB_DataIn
p6303
I3806
sVmand_lock
p6304
I6229
sVfastopen_no_cookie
p6305
I4974
sV__kernel_size_t
p6306
I6390
sVmov_write_nmhd_tag
p6307
I5867
sVsub_frag_mem_limit
p6308
I3289
sVwaiters
p6309
I6153
sVOCFS2_I
p6310
I4218
sVOPENSSL_MAX_TLS1_2_CIPHER_LENGTH
p6311
I279
sVsize_t *
p6312
I78
sV_XBF_PAGES
p6313
I2586
sVstruct dccp_hdr
p6314
I1840
sVdevice_hwctx
p6315
I5626
sVifa_list
p6316
I6122
sVpix_fmts
p6317
I5505
sVsb_agblocks
p6318
I2979
sVSIGSTOP
p6319
I4771
sVIFF_ONE_QUEUE
p6320
I4079
sVVERIFY_WRITE
p6321
I2826
sVcfg
p6322
I1704
sVmemset
p6323
I467
sVS_ISLNK
p6324
I2429
sVmem_cgroup_cache_charge
p6325
I1950
sVsync_state
p6326
I6027
sVu32_max_value
p6327
I4140
sVxfs_bmap_count_blocks
p6328
I5314
sVbdp
p6329
I5355
sVhinfo
p6330
I3984
sVreplyopts
p6331
I2267
sVtsap_sel
p6332
I2333
sVXFS_FSOP_GEOM_FLAGS_FTYPE
p6333
I2982
sVstruct sk_buff_head *
p6334
I3058
sVX509_get_signature_nid
p6335
I592
sVraw6_local_deliver
p6336
I2888
sVrej_len
p6337
I3429
sVwl
p6338
I6117
sVAV_CODEC_ID_ADPCM_G726
p6339
I5921
sVtty_files
p6340
I5139
sVsat
p6341
I6554
sVskb_queue_tail
p6342
I3129
sVECRYPTFS_TAG_11_PACKET_TYPE
p6343
I1156
sVHFCUSB_PCM_RX
p6344
I4275
sVINET6_PROTO_NOPOLICY
p6345
I2892
sVscnprintf
p6346
I6264
sVext4fs_dirhash
p6347
I4014
sVusg
p6348
I3779
sVfrom
p6349
I2193
sVstream
p6350
I6444
sV&
p6351
I47
sVskb_reset_network_header
p6352
I4070
sVotherName
p6353
I839
sVipip6_tunnel_lookup
p6354
I1529
sVined
p6355
I446
sVHFCUSB_DBG_DCHANNEL
p6356
I4283
sVuss
p6357
I1431
sVhdspm_autosync_ref
p6358
I2144
sVinet
p6359
I1792
sVsense_len
p6360
I3324
sVi_ino
p6361
I3090
sVisofs_file_compressed
p6362
I6365
sVstruct rtable *
p6363
I1783
sVnum_services
p6364
I6020
sVCIFS_MOUNT_NO_PERM
p6365
I6186
sVssl_fill_hello_random
p6366
I498
sVngroups
p6367
I3044
sVvn_from_inode
p6368
I5389
sVXFS_FORCED_SHUTDOWN
p6369
I5041
sV0.0
p6370
I5694
sVtag
p6371
I101
sVserial
p6372
I2730
sVxfs_sb_version_hasrmapbt
p6373
I2992
sVdwt
p6374
I5814
sVvpit
p6375
I2230
sVsic
p6376
I1218
sVstrcpy
p6377
I3820
sVsig
p6378
I3111
sVIP6_MF
p6379
I1401
sV"NFS: permission(%s/%lu), mask=0x%x, res=%d\u005cn"
p6380
I5420
sVumax_value
p6381
I5270
sVsin
p6382
I1562
sVsil
p6383
I344
sVav_freep
p6384
I5917
sVlifespan_increment
p6385
I6556
sVstruct sk_buff *
p6386
I1060
sVav_dict_get
p6387
I5509
sVuse_pc_sigalgs
p6388
I595
sVctx_in
p6389
I794
sVIOA_STATE_OPERATIONAL
p6390
I1539
sVmk_pid
p6391
I2247
sVSSL3_MT_SERVER_KEY_EXCHANGE
p6392
I655
sVcard_specific
p6393
I3624
sVstruct sctp_paramhdr
p6394
I6590
sVclear_buffer_delay
p6395
I1648
sVaf_specific
p6396
I4935
sVtcfm_ifindex
p6397
I2354
sVcifs_sb
p6398
I4544
sVBN_FLG_CONSTTIME
p6399
I920
sVEVP_CTRL_TLS1_1_MULTIBLOCK_AAD
p6400
I245
sVTCA_MIRRED_TM
p6401
I4845
sVldm_error
p6402
I4287
sVSCTP_PAD4
p6403
I2502
sVVM_FAULT_OOM
p6404
I2075
sVpending
p6405
I1780
sVinlen
p6406
I753
sVcount1table_select
p6407
I5619
sVtun_set_queue
p6408
I3155
sVunsigned long
p6409
I32
sVflen
p6410
I4795
sVstruct iovec *
p6411
I6401
sVssl_get_new_session
p6412
I296
sVskb_alloc_rx_flag
p6413
I2003
sVbounce_gfp
p6414
I1233
sVRTF_NONEXTHOP
p6415
I3222
sV_DRM_STAT_IOCTLS
p6416
I5996
sVXFS_FSOP_GEOM_FLAGS_PROJID32
p6417
I2966
sVdev_set_mac_address
p6418
I3304
sVEPERM
p6419
I1123
sVdonor_inode
p6420
I2854
sVext4_free_blks_count
p6421
I2786
sVtpPESession
p6422
I5960
sVParameter
p6423
I0
sVout
p6424
I259
sVEISCONN
p6425
I6676
sVtsock
p6426
I1515
sVvcc
p6427
I1371
sVssl3_read_n
p6428
I930
sVsg_table_array
p6429
I2442
sVHFCUSB_B1_RX
p6430
I4274
sVirda_connect_indication
p6431
I3389
sVssl_rsa_private_decrypt
p6432
I484
sVclone
p6433
I6508
sVsx_stat
p6434
I5378
sVCIFS_MOUNT_MAP_SPECIAL_CHR
p6435
I6191
sV__detach_vcache
p6436
I6151
sVg
p6437
I674
sVnla_put
p6438
I4854
sVext4_used_dirs_count
p6439
I2790
sVnetlink_net_capable
p6440
I2652
sVltc
p6441
I5080
sVstruct usb_composite_dev *
p6442
I3848
sVdrm_vblank_pre_modeset
p6443
I3254
sVcount_configs
p6444
I3893
sVns_capable
p6445
I1910
sVsk_txtime_deadline_mode
p6446
I3371
sVlocal_paca
p6447
I4811
sVAVD3D11VADeviceContext *
p6448
I5625
sVpidmap
p6449
I2243
sVcbps
p6450
I5783
sVAVIOContext *
p6451
I5648
sVsb_logblocks
p6452
I2938
sV"overread, skip %d enddists: %d %d\u005cn"
p6453
I5891
sVirda_data_indication
p6454
I3384
sVseq
p6455
I314
sVSSL_SENT_SHUTDOWN
p6456
I411
sVntohl
p6457
I1270
sVconst struct sctp_association *
p6458
I2226
sVpriority
p6459
I605
sVntohs
p6460
I1406
sVvm_file
p6461
I2759
sVmsr_based_features
p6462
I4253
sVnfsd4_decode_rename
p6463
I1310
sVuobject
p6464
I5027
sVFREE_NID
p6465
I4522
sVtuple
p6466
I1585
sVYAM_SLOTTIME
p6467
I6641
sVlru_lock
p6468
I5110
sVconst struct inet_diag_bc_op *
p6469
I2647
sVfrag
p6470
I309
sVSSL3_RECORD_set_off
p6471
I863
sVstruct hdspm_mixer_ioctl
p6472
I6678
sVFLAC_SUBFRAME_CONSTANT
p6473
I5907
sVstruct flowi6
p6474
I3720
sVv4l
p6475
I2848
sVstruct flowi4
p6476
I6529
sVSSL3_ST_CR_FINISHED_A
p6477
I620
sVxfs_swapext_t __user *
p6478
I2405
sVAV_PIX_FMT_RGB555
p6479
I5889
sV__put_ioctx
p6480
I5013
sVAV_CPU_FLAG_ALTIVEC
p6481
I6603
sVip6_dst_ops
p6482
I3234
sVirda
p6483
I6180
sVTUNGETFEATURES
p6484
I3302
sV"on running transaction"
p6485
I5445
sVPTRACE_ATTACH
p6486
I4781
sVstruct kvm_run *
p6487
I2055
sVVAR_MAXVAL
p6488
I5603
sVSSL_get_rbio
p6489
I515
sVdrm_ioctl_t *
p6490
I2633
sVfutex_proxy_trylock_atomic
p6491
I2827
sVstruct aac_dev *
p6492
I3023
sVin_dev_put
p6493
I6396
sVdmaaddr
p6494
I6072
sVmax_inodes
p6495
I5236
sVbuf_space
p6496
I340
sVBUF_MEM * *
p6497
I123
sVsk_head
p6498
I3118
sVstruct ip_vs_dest_entry
p6499
I6008
sVEXT4_DIRENT_TAIL
p6500
I4038
sVYAM_MAXMODE
p6501
I6638
sVMAY_CHDIR
p6502
I6578
sVshmem_free_block
p6503
I4842
sVpipe
p6504
I1615
sVSSL_kEDH
p6505
I681
sVfastopen_connect
p6506
I4968
sVavio_skip
p6507
I5931
sVvar_names
p6508
I5596
sVff_insert_outpad
p6509
I3469
sVJ_ASSERT_JH
p6510
I5438
sVsk_ASN1_TYPE_value
p6511
I1023
sVlock_super
p6512
I4442
sVparam_flags
p6513
I6459
sVtot_len
p6514
I3132
sVvoid __user * [ 32 ]
p6515
I6287
sVsrc_known
p6516
I4135
sVFIPS_mode
p6517
I341
sVd_name
p6518
I4217
sVtcpct_s_data_desired
p6519
I3457
sVidr_find
p6520
I5028
sVrec_version
p6521
I430
sVBIO_dgram_get_peer
p6522
I539
sVip6_forward
p6523
I3228
sV__be32 *
p6524
I4757
sVqp
p6525
I2135
sVqs
p6526
I5053
sVext4_next_entry
p6527
I4034
sV"WAVEFORMATEX support for RIFX files\u005cn"
p6528
I5920
sVstruct tnum
p6529
I4145
sVscsi_host_ptr
p6530
I3783
sVIPV6_ADDR_MULTICAST
p6531
I6486
sVclientvers
p6532
I505
sVNFS_I
p6533
I5419
sVinterrupt_callback
p6534
I5947
sVconst EC_GROUP *
p6535
I1005
sVs_type
p6536
I2467
sVias_obj
p6537
I1877
sVstruct dx_root *
p6538
I3977
sVsfu_emul
p6539
I6230
sVipq_put
p6540
I6067
sVsysctl_icmp_errors_use_inbound_ifaddr
p6541
I5172
sVINET_FRAG_COMPLETE
p6542
I1421
sVstruct cifs_ses *
p6543
I1526
sVsnd_ctl_find_id
p6544
I3911
sVCL_TRUE
p6545
I3595
sVPH_DATA
p6546
I4268
sVIPPROTO_IPV6
p6547
I3004
sVVbuf
p6548
I5829
sVETIMEDOUT
p6549
I6624
sVobj_to_fb
p6550
I6308
sVstack_t __user *
p6551
I1440
sVav_expr_parse
p6552
I5595
sVtable
p6553
I3202
sVext3_std_error
p6554
I4466
sVPF_INET6
p6555
I1751
sVstruct dentry *
p6556
I3981
sVnh_sel
p6557
I1639
sVmlog_entry
p6558
I4220
sVstruct drm_ioctl_desc *
p6559
I2637
sVASN1_get_object
p6560
I100
sVclient_random
p6561
I269
sVreal_parent
p6562
I1119
sVxfs_inode_t *
p6563
I5042
sVtcp_set_congestion_control
p6564
I4976
sValign
p6565
I182
sVget_compat_shmid_ds
p6566
I2015
sVip_make_skb
p6567
I3752
sVtrylock_page
p6568
I1953
sV~
p6569
I1577
sVrename
p6570
I1311
sVlayer
p6571
I4276
sVlen_ext_prop
p6572
I4380
sV"rs_ioctl"
p6573
I4869
sVEACCES
p6574
I1824
sVput_aio_ring_file
p6575
I5025
sVmnt_ns
p6576
I2210
sV__ip_vs_mutex
p6577
I3407
sVd3d11va_default_lock
p6578
I5630
sVvdev_id
p6579
I5965
sVpmcraid_return_cmd
p6580
I4492
sVlocks_free_lock
p6581
I5278
sVchar [ BUFSIZ ]
p6582
I2876
sVENOBUFS
p6583
I3748
sVext4_mark_inode_dirty
p6584
I4476
sVheader_ptr
p6585
I1730
sVEXT4_HTREE_LEVEL
p6586
I4025
sVUVERBS_OBJECT_CQ
p6587
I1737
sV0x10
p6588
I4402
sVw_value
p6589
I3867
sVYAM_BAUDRATE
p6590
I4692
sVdrm_framebuffer_unreference
p6591
I6307
sV__QDISC_STATE_RUNNING
p6592
I2906
sVwrec
p6593
I168
sVtidStatus
p6594
I4547
sVTEXTURE_BLOCK_H
p6595
I5723
sVDR_WRITE
p6596
I4912
sVtco
p6597
I5099
sVtcm
p6598
I1076
sVTEXTURE_BLOCK_W
p6599
I5725
sVnet_admin
p6600
I2651
sVPTRACE_MODE_ATTACH
p6601
I1130
sVskb_tunnel_rx
p6602
I4060
sVtoo_many_pipe_buffers_soft
p6603
I1766
sVunsigned
p6604
I1043
sVskb
p6605
I1061
sVSSL_AD_NO_ALERT
p6606
I879
sVi_mode
p6607
I2425
sVjbd_unlock_bh_state
p6608
I5455
sVstruct gnet_dump
p6609
I6524
sVcopy_highpage
p6610
I4191
sVdecompress_texture_thread
p6611
I5745
sVsk2
p6612
I2276
sVstruct tcf_t
p6613
I6537
sVIS_ERR
p6614
I1205
sV0xff
p6615
I144
sVy420
p6616
I3503
sVtruespeech_place_pulses
p6617
I3555
sVext4_free_group_clusters
p6618
I5494
sVparity
p6619
I5226
sVpriv_key
p6620
I779
sVshutdown
p6621
I399
sVnbands
p6622
I5801
sVf2fs_check_nid_range
p6623
I2397
sVBIO_NULL_MAPPED
p6624
I6412
sVXFS_SB_VERSION_HASLOGV2
p6625
I3160
sVdx_set_count
p6626
I3995
sVnfsd4_decode_setclientid
p6627
I1316
sVdi_size
p6628
I5345
sVs_data_payload
p6629
I3445
sVMOVMuxContext *
p6630
I5862
sVfirst_packet
p6631
I16
sVsctp_make_op_error_space
p6632
I2222
sVSSL_EARLY_DATA_READING
p6633
I447
sVdst_pmtu
p6634
I5490
sVLED_B1_DATA
p6635
I4263
sVmax_sectors
p6636
I3782
sVhard_header
p6637
I6392
sVHDSPM_midiStatusIn0
p6638
I3643
sVEXT4_FEATURE_RO_COMPAT_SPARSE_SUPER
p6639
I4450
sVCIFS_SB
p6640
I4549
sVpte_mkdirty
p6641
I4346
sVossl_statem_skip_early_data
p6642
I440
sVchroma_height
p6643
I5834
sVcarrier
p6644
I6439
sVX509_NAME_cmp
p6645
I834
sVstruct iovec
p6646
I2694
sVpacket_alloc
p6647
I3575
sVbytestream_get_byte
p6648
I3587
sVput_rpccred
p6649
I5403
sVFALLOC_FL_PUNCH_HOLE
p6650
I4601
sVcmtp_send_interopmsg
p6651
I6049
sVdomain
p6652
I1517
sVval
p6653
I901
sVhwctx
p6654
I5627
sVBN_CTX_free
p6655
I798
sV*
p6656
I58
sValloclen
p6657
I6534
sVlock_mutex
p6658
I4558
sVrt6i_dev
p6659
I6480
sVnfserr_op_illegal
p6660
I1326
sVCondition
p6661
I5
sVtcp_set_ulp
p6662
I4997
sVicmp_pointers
p6663
I5176
sVcsum_partial
p6664
I1404
sVSSL_R_NO_RENEGOTIATION
p6665
I874
sV"nf_ct_dccp: bad checksum "
p6666
I4735
sVswaplist
p6667
I4837
sVout_buf
p6668
I3548
sVeb
p6669
I3124
sVchar [ SCSI_SENSE_BUFFERSIZE ]
p6670
I3331
sVtemp
p6671
I1164
sVVM_PFNMAP
p6672
I1555
sVWORD_ROUND
p6673
I2219
sVavpriv_report_missing_feature
p6674
I5919
sVmadi
p6675
I3623
sVnl_net
p6676
I3215
sVXFS_INLINE_EXTS
p6677
I5308
sVprivate_size
p6678
I3689
sVUDP_MIB_SNDBUFERRORS
p6679
I4906
sVnid_list_lock
p6680
I4530
sVREAD_ONCE
p6681
I3376
sVDR6_RTM
p6682
I4645
sVrelease_sock
p6683
I4746
sVstruct_size
p6684
I6029
sVskb_dst
p6685
I2756
sVdev_queue_xmit
p6686
I6132
sVSSL_SESSION *
p6687
I186
sVother
p6688
I841
sVbool
p6689
I1907
sVfree_nid_list_lock
p6690
I6060
sVlist_skb
p6691
I4616
sV__pskb_trim
p6692
I2238
sVfib6_new_table
p6693
I3203
sVLCP_OPTION_ACCM
p6694
I3434
sVstruct sock_filter __user *
p6695
I5465
sVtransport_header
p6696
I1963
sVstruct tun_struct *
p6697
I3316
sVsin6_port
p6698
I5501
sVTIOCM_CTS
p6699
I6565
sVdccph_doff
p6700
I1841
sVatomic64_add
p6701
I4435
sVIP4_REPLY_MARK
p6702
I2269
sVCIFS_MOUNT_DIRECT_IO
p6703
I6207
sVinit_net
p6704
I2107
sVcopy_to_user_fromio
p6705
I5393
sVsnd_ctl_elem_user_info
p6706
I3909
sVdx_root_limit
p6707
I3994
s.