(dp0
V/home/anderson/Documents/siamese_dataset/linux_data/fix/CVE-2009-1630/linux-3.14.44#dir.c#small#nfs_permission#2277.c
p1
I11
sV/home/anderson/Documents/siamese_dataset/linux_data/fix/CVE-2014-4654/linux-4.9.23#control.c#small#snd_ctl_elem_add#1229.c
p2
I41
sV/home/anderson/Documents/siamese_dataset/linux_data/fix/CVE-2009-1360/linux-4.2.4#inet6_hashtables.c#small#__inet6_check_established#192.c
p3
I44
sV/home/anderson/Documents/siamese_dataset/linux_data/vul/CVE-2010-2803/linux-2.6.32.4#drm_drv.c#small#drm_ioctl#407.c
p4
I43
sV/home/anderson/Documents/siamese_dataset/linux_data/fix/CVE-2012-3511/linux-4.9.30#madvise.c#small#madvise_remove#486.c
p5
I15
sV/home/anderson/Documents/siamese_dataset/linux_data/vul/CVE-2010-2066/linux-2.6.33#move_extent.c#small#mext_check_arguments#943.c
p6
I113
sV/home/anderson/Documents/siamese_dataset/linux_data/fix/CVE-2010-4526/linux-2.6.39.4#input.c#small#sctp_icmp_proto_unreachable#437.c
p7
I7
sV/home/anderson/Documents/siamese_dataset/linux_data/vul/CVE-2019-19602/linux-5.4.rc2#internal.h#small#fpregs_state_valid#510.c
p8
I3
sV/home/anderson/Documents/siamese_dataset/linux_data/fix/CVE-2009-1192/linux-4.4.130#generic.c#small#agp_generic_alloc_pages#1195.c
p9
I7
sV/home/anderson/Documents/siamese_dataset/linux_data/vul/CVE-2013-4588/linux-2.6.13#ip_vs_ctl.c#small#do_ip_vs_get_ctl#2193.c
p10
I16
sV/home/anderson/Documents/siamese_dataset/linux_data/fix/CVE-2012-4444/linux-4.20.9#reassembly.c#small#ip6_frag_queue#110.c
p11
I72
sV/home/anderson/Documents/siamese_dataset/linux_data/vul/CVE-2011-1079/linux-2.6.38.1#sock.c#small#bnep_sock_ioctl#63.c
p12
I4
sV/home/anderson/Documents/siamese_dataset/linux_data/fix/CVE-2010-4163/linux-3.4.8#blk-map.c#small#blk_rq_map_user_iov#190.c
p13
I15
sV/home/anderson/Documents/siamese_dataset/linux_data/fix/CVE-2009-1961/linux-2.6.35.2#file.c#small#ocfs2_file_splice_write#2390.c
p14
I23
sV/home/anderson/Documents/siamese_dataset/linux_data/vul/CVE-2010-3432/linux-2.6.28.8#output.c#small#sctp_packet_config#73.c
p15
I17
sV/home/anderson/Documents/siamese_dataset/linux_data/fix/CVE-2009-2698/linux-4.9.25#udp.c#small#udp_sendmsg#873.c
p16
I198
sV/home/anderson/Documents/siamese_dataset/linux_data/fix/CVE-2009-4005/linux-4.18.9#hfc_usb.c#small#collect_rx_frame#780.c
p17
I10
sV/home/anderson/Documents/siamese_dataset/linux_data/fix/CVE-2009-0745/linux-2.6.29.2#resize.c#small#ext4_group_add#738.c
p18
I53
sV/home/anderson/Documents/siamese_dataset/linux_data/fix/CVE-2009-2698/linux-4.4.1#udp.c#small#udp_sendmsg#879.c
p19
I202
sV/home/anderson/Documents/siamese_dataset/linux_data/fix/CVE-2009-1630/linux-2.6.29#dir.c#small#nfs_permission#1928.c
p20
I8
sV/home/anderson/Documents/siamese_dataset/linux_data/vul/CVE-2006-4997/linux-2.6.11.2#clip.c#small#clip_mkip#447.c
p21
I37
sV/home/anderson/Documents/siamese_dataset/linux_data/vul/CVE-2014-4027/linux-3.0.38#target_core_rd.c#small#rd_build_device_space#141.c
p22
I15
sV/home/anderson/Documents/siamese_dataset/linux_data/fix/CVE-2005-0180/linux-3.14.44#scsi_ioctl.c#small#sg_scsi_ioctl#413.c
p23
I35
sV/home/anderson/Documents/siamese_dataset/linux_data/vul/CVE-2009-0778/linux-2.6.7#icmp.c#small#icmp_send#430.c
p24
I46
sV/home/anderson/Documents/siamese_dataset/linux_data/fix/CVE-2009-2698/linux-2.6.37.5#udp.c#small#udp_sendmsg#772.c
p25
I167
sV/home/anderson/Documents/siamese_dataset/linux_data/fix/CVE-2009-0746/linux-2.6.31#namei.c#small#make_indexed_dir#1388.c
p26
I32
sV/home/anderson/Documents/siamese_dataset/linux_data/vul/CVE-2010-0006/linux-2.6.19#exthdrs.c#small#ipv6_hop_jumbo#627.c
p27
I30
sV/home/anderson/Documents/siamese_dataset/linux_data/vul/CVE-2009-2698/linux-2.6.11.2#udp.c#small#udp_sendmsg#772.c
p28
I165
sV/home/anderson/Documents/siamese_dataset/linux_data/fix/CVE-2019-19602/linux-5.9.rc5#internal .h#small#fpregs_state_valid#480.c
p29
I3
sV/home/anderson/Documents/siamese_dataset/linux_data/fix/CVE-2013-0349/linux-4.9.115#core.c#small#hidp_setup_hid#749.c
p30
I29
sV/home/anderson/Documents/siamese_dataset/linux_data/vul/CVE-2013-0349/linux-3.0.38#core.c#small#hidp_setup_hid#905.c
p31
I33
sV/home/anderson/Documents/siamese_dataset/linux_data/vul/CVE-2013-0290/linux-3.4.8#datagram.c#small#__skb_recv_datagram#161.c
p32
I21
sV/home/anderson/Documents/siamese_dataset/linux_data/fix/CVE-2013-0349/linux-4.9.182#core.c#small#hidp_setup_hid#749.c
p33
I29
sV/home/anderson/Documents/siamese_dataset/linux_data/vul/CVE-2018-6927/linux-3.0.38#futex.c#small#futex_requeue#1245.c
p34
I102
sV/home/anderson/Documents/siamese_dataset/linux_data/vul/CVE-2009-1192/linux-2.6.11.2#generic.c#small#agp_generic_alloc_pages#1198.c
p35
I7
sV/home/anderson/Documents/siamese_dataset/linux_data/vul/CVE-2021-43057/linux-5.13#hooks.c#small#selinux_ptrace_traceme#2155.c
p36
I4
sV/home/anderson/Documents/siamese_dataset/linux_data/fix/CVE-2014-2309/linux-4.19.57#route.c#small#ip6_route_add#3200.c
p37
I7
sV/home/anderson/Documents/siamese_dataset/linux_data/fix/CVE-2010-2803/linux-3.14.44#drm_drv.c#small#drm_ioctl#300.c
p38
I74
sV/home/anderson/Documents/siamese_dataset/linux_data/fix/CVE-2010-2240/linux-3.19.2#memory.c#small#do_anonymous_page#2622.c
p39
I12
sV/home/anderson/Documents/siamese_dataset/linux_data/fix/CVE-2009-3228/linux-2.6.39.4#sch_api.c#small#tc_fill_tclass#1485.c
p40
I14
sV/home/anderson/Documents/siamese_dataset/linux_data/fix/CVE-2011-1044/linux-4.18.9#uverbs_cmd.c#small#ib_uverbs_poll_cq#1233.c
p41
I24
sV/home/anderson/Documents/siamese_dataset/linux_data/vul/CVE-2022-25258/linux-5.9#composite.c#small#composite_setup#1627.c
p42
I298
sV/home/anderson/Documents/siamese_dataset/linux_data/fix/CVE-2010-4256/linux-3.2.12#pipe.c#small#pipe_fcntl#1213.c
p43
I6
sV/home/anderson/Documents/siamese_dataset/linux_data/fix/CVE-2021-43057/linux-5.15#hooks.c#small#selinux_ptrace_traceme#2157.c
p44
I4
sV/home/anderson/Documents/siamese_dataset/linux_data/vul/CVE-2012-4444/linux-2.6.8.1#reassembly.c#small#ip6_frag_queue#415.c
p45
I62
sV/home/anderson/Documents/siamese_dataset/linux_data/fix/CVE-2009-1527/linux-4.4.1#ptrace.c#small#ptrace_attach#273.c
p46
I69
sV/home/anderson/Documents/siamese_dataset/linux_data/fix/CVE-2008-2136/linux-2.6.7#sit.c#small#ipip6_rcv#368.c
p47
I6
sV/home/anderson/Documents/siamese_dataset/linux_data/vul/CVE-2014-2523/linux-3.4.52#nf_conntrack_proto_dccp.c#small#dccp_error#572.c
p48
I11
sV/home/anderson/Documents/siamese_dataset/linux_data/fix/CVE-2017-18221/linux-4.4.126#mlock.c#small#__munlock_pagevec#276.c
p49
I5
sV/home/anderson/Documents/siamese_dataset/linux_data/fix/CVE-2010-2954/linux-4.9.23#af_irda.c#small#irda_open_tsap#453.c
p50
I1
sV/home/anderson/Documents/siamese_dataset/linux_data/fix/CVE-2009-1630/linux-2.6.11.2#dir.c#small#nfs_permission#2198.c
p51
I11
sV/home/anderson/Documents/siamese_dataset/linux_data/fix/CVE-2011-2496/linux-4.9.182#mremap.c#small#vma_to_resize#360.c
p52
I17
sV/home/anderson/Documents/siamese_dataset/linux_data/fix/CVE-2010-2954/linux-3.4.36#af_irda.c#small#irda_bind#779.c
p53
I39
sV/home/anderson/Documents/siamese_dataset/linux_data/vul/CVE-2009-4307/linux-2.6.29.6#super.c#small#ext4_fill_flex_info#1581.c
p54
I17
sV/home/anderson/Documents/siamese_dataset/linux_data/fix/CVE-2010-3849/linux-3.4.8#af_econet.c#small#econet_sendmsg#262.c
p55
I31
sV/home/anderson/Documents/siamese_dataset/linux_data/vul/CVE-2011-4087/linux-2.6.37.5#br_netfilter.c#small#br_parse_ip_options#218.c
p56
I33
sV/home/anderson/Documents/siamese_dataset/linux_data/vul/CVE-2014-7841/linux-3.10.5#sm_make_chunk.c#small#sctp_process_param#2471.c
p57
I28
sV/home/anderson/Documents/siamese_dataset/linux_data/vul/CVE-2005-4635/linux-2.6.14#fib_frontend.c#small#nl_fib_input#543.c
p58
I16
sV/home/anderson/Documents/siamese_dataset/linux_data/fix/CVE-2009-2698/linux-2.6.39.2#udp.c#small#udp_sendmsg#789.c
p59
I184
sV/home/anderson/Documents/siamese_dataset/linux_data/fix/CVE-2010-1173/linux-4.18.9#sm_make_chunk.c#small#sctp_process_unk_param#2071.c
p60
I19
sV/home/anderson/Documents/siamese_dataset/linux_data/vul/CVE-2010-3432/linux-2.6.11.2#output.c#small#sctp_packet_config#89.c
p61
I11
sV/home/anderson/Documents/siamese_dataset/linux_data/vul/CVE-2010-3849/linux-2.6.11.2#af_econet.c#small#econet_sendmsg#252.c
p62
I29
sV/home/anderson/Documents/siamese_dataset/linux_data/fix/CVE-2009-2698/linux-3.4.83#udp.c#small#udp_sendmsg#792.c
p63
I192
sV/home/anderson/Documents/siamese_dataset/linux_data/vul/CVE-2014-3611/linux-3.12.1#i8254.c#small#__kvm_migrate_pit_timer#255.c
p64
I11
sV/home/anderson/Documents/siamese_dataset/linux_data/vul/CVE-2014-9584/linux-2.6.7#rock.c#small#parse_rock_ridge_inode_internal#162.c
p65
I42
sV/home/anderson/Documents/siamese_dataset/linux_data/vul/CVE-2010-2954/linux-2.6.32.15#af_irda.c#small#irda_bind#774.c
p66
I35
sV/home/anderson/Documents/siamese_dataset/linux_data/fix/CVE-2011-1771/linux-4.4.150#file.c#small#cifs_close#759.c
p67
I3
sV/home/anderson/Documents/siamese_dataset/linux_data/vul/CVE-2009-3726/linux-2.6.30#nfs4proc.c#small#nfs4_proc_lock#3586.c
p68
I15
sV/home/anderson/Documents/siamese_dataset/linux_data/fix/CVE-2011-2496/linux-4.2.4#mremap.c#small#vma_to_resize#346.c
p69
I16
sV/home/anderson/Documents/siamese_dataset/linux_data/fix/CVE-2011-1013/linux-3.0.55#drm_irq.c#small#drm_modeset_ctl#1025.c
p70
I6
sV/home/anderson/Documents/siamese_dataset/linux_data/fix/CVE-2007-6417/linux-2.6.27.48#shmem.c#small#shmem_getpage#1180.c
p71
I170
sV/home/anderson/Documents/siamese_dataset/linux_data/fix/CVE-2011-1079/linux-3.10.5#sock.c#small#bnep_sock_ioctl#52.c
p72
I29
sV/home/anderson/Documents/siamese_dataset/linux_data/vul/CVE-2011-2213/linux-2.6.32.24#inet_diag.c#small#inet_diag_bc_audit#447.c
p73
I17
sV/home/anderson/Documents/siamese_dataset/linux_data/vul/CVE-2010-2240/linux-2.6.32.5#memory.c#small#do_anonymous_page#2627.c
p74
I55
sV/home/anderson/Documents/siamese_dataset/linux_data/vul/CVE-2009-1630/linux-2.6.9#dir.c#small#nfs_permission#1555.c
p75
I17
sV/home/anderson/Documents/siamese_dataset/linux_data/vul/CVE-2011-1017/linux-2.6.32.20#ldm.c#small#ldm_frag_add#1289.c
p76
I12
sV/home/anderson/Documents/siamese_dataset/linux_data/vul/CVE-2018-6554/linux-2.4.7#af_irda.c#small#irda_bind#784.c
p77
I4
sV/home/anderson/Documents/siamese_dataset/linux_data/fix/CVE-2011-1078/linux-3.3#sco.c#small#sco_sock_getsockopt_old#680.c
p78
I38
sV/home/anderson/Documents/siamese_dataset/linux_data/vul/CVE-2013-7348/linux-3.0.21#aio.c#small#ioctx_alloc#252.c
p79
I63
sV/home/anderson/Documents/siamese_dataset/linux_data/fix/CVE-2009-0746/linux-2.6.34.2#namei.c#small#make_indexed_dir#1373.c
p80
I32
sV/home/anderson/Documents/siamese_dataset/linux_data/vul/CVE-2013-6432/linux-3.12.1#ping.c#small#ping_recvmsg#825.c
p81
I52
sV/home/anderson/Documents/siamese_dataset/linux_data/fix/CVE-2010-2240/linux-3.12.1#memory.c#small#do_anonymous_page#3211.c
p82
I11
sV/home/anderson/Documents/siamese_dataset/linux_data/vul/CVE-2014-4667/linux-3.4.71#associola.c#small#sctp_association_free#382.c
p83
I8
sV/home/anderson/Documents/siamese_dataset/linux_data/vul/CVE-2009-1360/linux-2.6.27.8#inet6_hashtables.c#small#__inet6_check_established#158.c
p84
I52
sV/home/anderson/Documents/siamese_dataset/linux_data/fix/CVE-2010-0437/linux-3.14.44#ip6_output.c#small#ip6_dst_lookup_tail#895.c
p85
I30
sV/home/anderson/Documents/siamese_dataset/linux_data/vul/CVE-2005-0180/linux-2.6.7#scsi_ioctl.c#small#sg_scsi_ioctl#222.c
p86
I32
sV/home/anderson/Documents/siamese_dataset/linux_data/fix/CVE-2007-1861/linux-4.4.150#fib_frontend.c#small#nl_fib_lookup#1047.c
p87
I22
sV/home/anderson/Documents/siamese_dataset/linux_data/fix/CVE-2010-4165/linux-4.18.9#tcp.c#small#do_tcp_setsockopt#2479.c
p88
I60
sV/home/anderson/Documents/siamese_dataset/linux_data/vul/CVE-2013-6380/linux-3.0.38#commctrl.c#small#aac_send_raw_srb#465.c
p89
I43
sV/home/anderson/Documents/siamese_dataset/linux_data/vul/CVE-2012-1583/linux-2.6.13#xfrm6_tunnel.c#small#xfrm6_tunnel_rcv#400.c
p90
I12
sV/home/anderson/Documents/siamese_dataset/linux_data/fix/CVE-2010-4165/linux-3.0.21#tcp.c#small#do_tcp_setsockopt#2117.c
p91
I113
sV/home/anderson/Documents/siamese_dataset/linux_data/fix/CVE-2018-6927/linux-5.1.7#futex.c#small#futex_requeue#1916.c
p92
I12
sV/home/anderson/Documents/siamese_dataset/linux_data/fix/CVE-2010-4565/linux-4.18.9#bcm.c#small#bcm_connect#1591.c
p93
I43
sV/home/anderson/Documents/siamese_dataset/linux_data/fix/CVE-2009-0746/linux-4.2.8#namei.c#small#make_indexed_dir#1930.c
p94
I36
sV/home/anderson/Documents/siamese_dataset/linux_data/vul/CVE-2012-1583/linux-2.6.27.43#xfrm6_tunnel.c#small#xfrm6_tunnel_rcv#400.c
p95
I12
sV/home/anderson/Documents/siamese_dataset/linux_data/fix/CVE-2005-4635/linux-3.10.5#fib_frontend.c#small#nl_fib_input#950.c
p96
I23
sV/home/anderson/Documents/siamese_dataset/linux_data/vul/CVE-2014-4655/linux-3.0.38#control.c#small#snd_ctl_elem_add#1066.c
p97
I11
sV/home/anderson/Documents/siamese_dataset/linux_data/fix/CVE-2011-3637/linux-2.6.27.23#task_mmu.c#small#m_stop#172.c
p98
I8
sV/home/anderson/Documents/siamese_dataset/linux_data/fix/CVE-2011-3637/linux-3.10.90#task_mmu.c#small#m_stop#228.c
p99
I9
sV/home/anderson/Documents/siamese_dataset/linux_data/fix/CVE-2014-4654/linux-4.19.7#control.c#small#snd_ctl_elem_add#1241.c
p100
I41
sV/home/anderson/Documents/siamese_dataset/linux_data/fix/CVE-2013-4588/linux-2.6.11.2#ip_vs_ctl.c#small#do_ip_vs_get_ctl#2372.c
p101
I6
sV/home/anderson/Documents/siamese_dataset/linux_data/vul/CVE-2021-37576/linux-5.13#book3s_rtas.c#small#kvmppc_rtas_hcall#218.c
p102
I33
sV/home/anderson/Documents/siamese_dataset/linux_data/vul/CVE-2014-9584/linux-2.6.22#rock.c#small#parse_rock_ridge_inode_internal#283.c
p103
I51
sV/home/anderson/Documents/siamese_dataset/linux_data/fix/CVE-2010-4079/linux-3.4.52#ivtvfb.c#small#ivtvfb_ioctl#458.c
p104
I12
sV/home/anderson/Documents/siamese_dataset/linux_data/vul/CVE-2009-1961/linux-2.6.30#file.c#small#ocfs2_file_splice_write#1931.c
p105
I23
sV/home/anderson/Documents/siamese_dataset/linux_data/fix/CVE-2009-3638/linux-3.10.90#x86.c#small#kvm_arch_dev_ioctl#2640.c
p106
I34
sV/home/anderson/Documents/siamese_dataset/linux_data/fix/CVE-2011-1927/linux-2.6.8.1#ip_fragment.c#small#ip_expire#273.c
p107
I15
sV/home/anderson/Documents/siamese_dataset/linux_data/vul/CVE-2020-25643/linux-5.7#hdlc_ppp.c#small#ppp_cp_parse_cr#372.c
p108
I15
sV/home/anderson/Documents/siamese_dataset/linux_data/vul/CVE-2010-2803/linux-2.6.34.2#drm_drv.c#small#drm_ioctl#438.c
p109
I44
sV/home/anderson/Documents/siamese_dataset/linux_data/fix/CVE-2009-0778/linux-3.14.44#icmp.c#small#icmp_send#484.c
p110
I51
sV/home/anderson/Documents/siamese_dataset/linux_data/vul/CVE-2010-1173/linux-2.6.27.35#sm_make_chunk.c#small#sctp_process_unk_param#1939.c
p111
I18
sV/home/anderson/Documents/siamese_dataset/linux_data/fix/CVE-2009-4307/linux-3.0.21#super.c#small#ext4_fill_flex_info#1954.c
p112
I12
sV/home/anderson/Documents/siamese_dataset/linux_data/vul/CVE-2011-1013/linux-2.6.28.4#drm_irq.c#small#drm_modeset_ctl#440.c
p113
I6
sV/home/anderson/Documents/siamese_dataset/linux_data/vul/CVE-2011-2905/linux-3.10.5#config.c#small#perf_config#404.c
p114
I35
sV/home/anderson/Documents/siamese_dataset/linux_data/fix/CVE-2011-2213/linux-4.8.11#inet_diag.c#small#inet_diag_bc_audit#709.c
p115
I36
sV/home/anderson/Documents/siamese_dataset/linux_data/fix/CVE-2009-1527/linux-3.2.63#ptrace.c#small#ptrace_attach#265.c
p116
I59
sV/home/anderson/Documents/siamese_dataset/linux_data/fix/CVE-2009-1527/linux-3.16.62#ptrace.c#small#ptrace_attach#344.c
p117
I65
sV/home/anderson/Documents/siamese_dataset/linux_data/vul/CVE-2019-19602/linux-5.3#internal.h#small#fpregs_state_valid#510 .c
p118
I3
sV/home/anderson/Documents/siamese_dataset/linux_data/vul/CVE-2014-2309/linux-3.4.52#route.c#small#ip6_route_add#1252.c
p119
I45
sV/home/anderson/Documents/siamese_dataset/linux_data/fix/CVE-2009-3726/linux-4.4.133#nfs4proc.c#small#nfs4_proc_lock#6093.c
p120
I15
sV/home/anderson/Documents/siamese_dataset/linux_data/fix/CVE-2013-4588/linux-3.0.55#ip_vs_ctl.c#small#do_ip_vs_get_ctl#2560.c
p121
I6
sV/home/anderson/Documents/siamese_dataset/linux_data/fix/CVE-2010-3432/linux-4.18.9#output.c#small#sctp_packet_config#88.c
p122
I27
sV/home/anderson/Documents/siamese_dataset/linux_data/vul/CVE-2014-9584/linux-3.0.21#rock.c#small#parse_rock_ridge_inode_internal#291.c
p123
I51
sV/home/anderson/Documents/siamese_dataset/linux_data/vul/CVE-2009-1630/linux-2.4.36.3#dir.c#small#nfs_permission#1091.c
p124
I14
sV/home/anderson/Documents/siamese_dataset/linux_data/vul/CVE-2010-2521/linux-2.6.33#nfs4xdr.c#small#nfsd4_decode_compound#1361.c
p125
I50
sV/home/anderson/Documents/siamese_dataset/linux_data/fix/CVE-2011-3637/linux-2.6.37.5#task_mmu.c#small#m_stop#177.c
p126
I8
sV/home/anderson/Documents/siamese_dataset/linux_data/fix/CVE-2011-4087/linux-2.6.38.8#br_netfilter.c#small#br_parse_ip_options#219.c
p127
I34
sV/home/anderson/Documents/siamese_dataset/linux_data/fix/CVE-2008-2136/linux-2.6.22#sit.c#small#ipip6_rcv#367.c
p128
I6
sV/home/anderson/Documents/siamese_dataset/linux_data/vul/CVE-2011-3637/linux-2.6.7#task_mmu.c#small#m_stop#138.c
p129
I7
sV/home/anderson/Documents/siamese_dataset/linux_data/vul/CVE-2014-9584/linux-2.5.0#rock.c#small#parse_rock_ridge_inode_internal#230.c
p130
I42
sV/home/anderson/Documents/siamese_dataset/linux_data/vul/CVE-2014-9584/linux-2.5.37#rock.c#small#parse_rock_ridge_inode_internal#231.c
p131
I42
sV/home/anderson/Documents/siamese_dataset/linux_data/fix/CVE-2009-0745/linux-2.6.36.4#resize.c#small#ext4_group_add#722.c
p132
I50
sV/home/anderson/Documents/siamese_dataset/linux_data/fix/CVE-2010-2066/linux-3.14.44#move_extent.c#small#mext_check_arguments#1090.c
p133
I17
sV/home/anderson/Documents/siamese_dataset/linux_data/vul/CVE-2010-2240/linux-2.6.27.51#memory.c#small#do_anonymous_page#2403.c
p134
I44
sV/home/anderson/Documents/siamese_dataset/linux_data/vul/CVE-2010-3849/linux-2.6.14#af_econet.c#small#econet_sendmsg#252.c
p135
I29
sV/home/anderson/Documents/siamese_dataset/linux_data/fix/CVE-2009-3722/linux-5.1.7#vmx.c#small#handle_dr#4732.c
p136
I12
sV/home/anderson/Documents/siamese_dataset/linux_data/fix/CVE-2010-2942/linux-4.9.182#act_simple.c#small#tcf_simp_dump#143.c
p137
I6
sV/home/anderson/Documents/siamese_dataset/linux_data/fix/CVE-2014-4655/linux-5.1.4#control.c#small#snd_ctl_elem_add#1222.c
p138
I34
sV/home/anderson/Documents/siamese_dataset/linux_data/vul/CVE-2011-4086/linux-3.0.26#transaction.c#small#journal_unmap_buffer#1840.c
p139
I89
sV/home/anderson/Documents/siamese_dataset/linux_data/fix/CVE-2014-4027/linux-4.4.10#target_core_rd.c#small#rd_build_device_space#190.c
p140
I22
sV/home/anderson/Documents/siamese_dataset/linux_data/vul/CVE-2011-4086/linux-3.0.26#transaction.c#small#journal_unmap_buffer#1769.c
p141
I86
sV/home/anderson/Documents/siamese_dataset/linux_data/vul/CVE-2010-2942/linux-2.6.20#act_mirred.c#small#tcf_mirred_dump#208.c
p142
I5
sV/home/anderson/Documents/siamese_dataset/linux_data/vul/CVE-2005-0180/linux-2.6.8.1#scsi_ioctl.c#small#sg_scsi_ioctl#414.c
p143
I35
sV/home/anderson/Documents/siamese_dataset/linux_data/fix/CVE-2005-3858/linux-4.2.4#ip6_input.c#small#ip6_input_finish#201.c
p144
I52
sV/home/anderson/Documents/siamese_dataset/linux_data/vul/CVE-2014-3610/linux-3.12.1#svm.c#small#wrmsr_interception#3197.c
p145
I13
sV/home/anderson/Documents/siamese_dataset/linux_data/fix/CVE-2010-3432/linux-4.20.14#output.c#small#sctp_packet_config#88.c
p146
I27
sV/home/anderson/Documents/siamese_dataset/linux_data/vul/CVE-2014-4667/linux-3.10.5#associola.c#small#sctp_association_free#380.c
p147
I8
sV/home/anderson/Documents/siamese_dataset/linux_data/fix/CVE-2010-4649/linux-4.18.9#uverbs_cmd.c#small#ib_uverbs_poll_cq#1230.c
p148
I24
sV/home/anderson/Documents/siamese_dataset/linux_data/fix/CVE-2021-37576/linux-5.16#book3s_rtas.c#small#kvmppc_rtas_hcall#218.c
p149
I28
sV/home/anderson/Documents/siamese_dataset/linux_data/fix/CVE-2009-0745/linux-2.6.31#resize.c#small#ext4_group_add#738.c
p150
I53
sV/home/anderson/Documents/siamese_dataset/linux_data/vul/CVE-2008-2136/linux-2.4.26#sit.c#small#ipip6_rcv#383.c
p151
I6
sV/home/anderson/Documents/siamese_dataset/linux_data/vul/CVE-2011-1593/linux-2.6.31.2#pid.c#small#next_pidmap#185.c
p152
I1
sV/home/anderson/Documents/siamese_dataset/linux_data/fix/CVE-2009-0746/linux-3.12.1#namei.c#small#make_indexed_dir#1755.c
p153
I38
sV/home/anderson/Documents/siamese_dataset/linux_data/fix/CVE-2010-0437/linux-4.4.1#ip6_output.c#small#ip6_dst_lookup_tail#904.c
p154
I41
sV/home/anderson/Documents/siamese_dataset/linux_data/vul/CVE-2010-3849/linux-2.6.8.1#af_econet.c#small#econet_sendmsg#251.c
p155
I29
sV/home/anderson/Documents/siamese_dataset/linux_data/vul/CVE-2010-2942/linux-2.6.20#act_simple.c#small#tcf_simp_dump#155.c
p156
I6
sV/home/anderson/Documents/siamese_dataset/linux_data/fix/CVE-2009-0746/linux-4.18.9#namei.c#small#make_indexed_dir#1902.c
p157
I35
sV/home/anderson/Documents/siamese_dataset/linux_data/fix/CVE-2013-6380/linux-4.4.120#commctrl.c#small#aac_send_raw_srb#475.c
p158
I44
sV/home/anderson/Documents/siamese_dataset/linux_data/fix/CVE-2009-1630/linux-3.12.1#dir.c#small#nfs_permission#2280.c
p159
I11
sV/home/anderson/Documents/siamese_dataset/linux_data/fix/CVE-2010-4256/linux-4.4.137#pipe.c#small#pipe_fcntl#1102.c
p160
I6
sV/home/anderson/Documents/siamese_dataset/linux_data/fix/CVE-2011-1017/linux-3.2.64#ldm.c#small#ldm_frag_add#1296.c
p161
I9
sV/home/anderson/Documents/siamese_dataset/linux_data/vul/CVE-2009-2846/linux-2.6.13#eisa_eeprom.c#small#eisa_eeprom_read#50.c
p162
I8
sV/home/anderson/Documents/siamese_dataset/linux_data/fix/CVE-2009-1630/linux-5.1.17#dir.c#small#nfs_permission#2625.c
p163
I8
sV/home/anderson/Documents/siamese_dataset/linux_data/fix/CVE-2012-0044/linux-4.4.141#drm_crtc.c#small#drm_mode_dirtyfb_ioctl#3478.c
p164
I35
sV/home/anderson/Documents/siamese_dataset/linux_data/fix/CVE-2010-4165/linux-3.4.52#tcp.c#small#do_tcp_setsockopt#2136.c
p165
I113
sV/home/anderson/Documents/siamese_dataset/linux_data/vul/CVE-2009-2846/linux-2.6.11.5#eisa_eeprom.c#small#eisa_eeprom_read#53.c
p166
I8
sV/home/anderson/Documents/siamese_dataset/linux_data/vul/CVE-2010-3849/linux-2.6.27.23#af_econet.c#small#econet_sendmsg#263.c
p167
I31
sV/home/anderson/Documents/siamese_dataset/linux_data/vul/CVE-2010-2226/linux-2.6.30.4#xfs_dfrag.c#small#xfs_swapext#50.c
p168
I15
sV/home/anderson/Documents/siamese_dataset/linux_data/vul/CVE-2013-1928/linux-3.0.55#compat_ioctl.c#small#do_video_set_spu_palette#202.c
p169
I6
sV/home/anderson/Documents/siamese_dataset/linux_data/fix/CVE-2010-2240/linux-4.6.5#memory.c#small#do_anonymous_page#2729.c
p170
I15
sV/home/anderson/Documents/siamese_dataset/linux_data/fix/CVE-2010-2942/linux-3.2.64#act_simple.c#small#tcf_simp_dump#162.c
p171
I6
sV/home/anderson/Documents/siamese_dataset/linux_data/fix/CVE-2009-2698/linux-3.19.2#udp.c#small#udp_sendmsg#876.c
p172
I195
sV/home/anderson/Documents/siamese_dataset/linux_data/fix/CVE-2011-1927/linux-2.6.7#ip_fragment.c#small#ip_expire#273.c
p173
I15
sV/home/anderson/Documents/siamese_dataset/linux_data/vul/CVE-2010-4565/linux-2.6.29.2#bcm.c#small#bcm_connect#1478.c
p174
I1
sV/home/anderson/Documents/siamese_dataset/linux_data/fix/CVE-2010-4073/linux-3.0.55#compat.c#small#compat_sys_shmctl#593.c
p175
I9
sV/home/anderson/Documents/siamese_dataset/linux_data/fix/CVE-2009-4005/linux-3.4.8#hfc_usb.c#small#collect_rx_frame#780.c
p176
I10
sV/home/anderson/Documents/siamese_dataset/linux_data/vul/CVE-2010-3849/linux-2.6.20#af_econet.c#small#econet_sendmsg#264.c
p177
I31
sV/home/anderson/Documents/siamese_dataset/linux_data/vul/CVE-2014-5206/linux-3.10.5#namespace.c#small#do_remount#1782.c
p178
I27
sV/home/anderson/Documents/siamese_dataset/linux_data/fix/CVE-2005-0180/linux-4.18.9#scsi_ioctl.c#small#sg_scsi_ioctl#419.c
p179
I42
sV/home/anderson/Documents/siamese_dataset/linux_data/fix/CVE-2011-4086/linux-4.2.8#transaction.c#small#journal_unmap_buffer#2048.c
p180
I86
sV/home/anderson/Documents/siamese_dataset/linux_data/vul/CVE-2008-2136/linux-2.4.33#sit.c#small#ipip6_rcv#383.c
p181
I6
sV/home/anderson/Documents/siamese_dataset/linux_data/fix/CVE-2010-4165/linux-3.18.21#tcp.c#small#do_tcp_setsockopt#2335.c
p182
I41
sV/home/anderson/Documents/siamese_dataset/linux_data/vul/CVE-2009-3228/linux-2.6.16#sch_api.c#small#tc_fill_tclass#988.c
p183
I14
sV/home/anderson/Documents/siamese_dataset/linux_data/vul/CVE-2005-3858/linux-2.6.11.7#ip6_input.c#small#ip6_input_finish#134.c
p184
I64
sV/home/anderson/Documents/siamese_dataset/linux_data/vul/CVE-2014-4027/linux-3.2.12#target_core_rd.c#small#rd_build_device_space#133.c
p185
I15
sV/home/anderson/Documents/siamese_dataset/linux_data/fix/CVE-2014-4654/linux-4.4.120#control.c#small#snd_ctl_elem_add#1199.c
p186
I41
sV/home/anderson/Documents/siamese_dataset/linux_data/vul/CVE-2014-9584/linux-2.4.31#rock.c#small#parse_rock_ridge_inode_internal#238.c
p187
I42
sV/home/anderson/Documents/siamese_dataset/linux_data/fix/CVE-2010-2942/linux-3.2.63#act_mirred.c#small#tcf_mirred_dump#215.c
p188
I5
sV/home/anderson/Documents/siamese_dataset/linux_data/fix/CVE-2009-1527/linux-3.0.26#ptrace.c#small#ptrace_attach#185.c
p189
I52
sV/home/anderson/Documents/siamese_dataset/linux_data/vul/CVE-2005-0180/linux-2.6.9#scsi_ioctl.c#small#sg_scsi_ioctl#330.c
p190
I32
sV/home/anderson/Documents/siamese_dataset/linux_data/fix/CVE-2009-2698/linux-4.4.14#udp.c#small#udp_sendmsg#879.c
p191
I204
sV/home/anderson/Documents/siamese_dataset/linux_data/fix/CVE-2012-3511/linux-3.4.52#madvise.c#small#madvise_remove#200.c
p192
I16
sV/home/anderson/Documents/siamese_dataset/linux_data/fix/CVE-2013-7348/linux-4.4.10#aio.c#small#ioctx_alloc#690.c
p193
I38
sV/home/anderson/Documents/siamese_dataset/linux_data/fix/CVE-2009-2698/linux-2.6.28.10#udp.c#small#udp_sendmsg#515.c
p194
I162
sV/home/anderson/Documents/siamese_dataset/linux_data/fix/CVE-2010-2803/linux-3.12.1#drm_drv.c#small#drm_ioctl#369.c
p195
I78
sV/home/anderson/Documents/siamese_dataset/linux_data/fix/CVE-2011-1585/linux-5.0.10#connect.c#small#cifs_find_smb_ses#2869.c
p196
I7
sV/home/anderson/Documents/siamese_dataset/linux_data/fix/CVE-2013-4588/linux-3.4.52#ip_vs_ctl.c#small#do_ip_vs_get_ctl#2571.c
p197
I6
sV/home/anderson/Documents/siamese_dataset/linux_data/fix/CVE-2009-2846/linux-4.5.1#eisa_eeprom.c#small#eisa_eeprom_read#39.c
p198
I8
sV/home/anderson/Documents/siamese_dataset/linux_data/fix/CVE-2009-1527/linux-4.20.14#ptrace.c#small#ptrace_attach#343.c
p199
I65
sV/home/anderson/Documents/siamese_dataset/linux_data/fix/CVE-2011-1585/linux-3.4.83#connect.c#small#cifs_find_smb_ses#2318.c
p200
I7
sV/home/anderson/Documents/siamese_dataset/linux_data/fix/CVE-2009-0745/linux-2.6.35.2#resize.c#small#ext4_group_add#722.c
p201
I50
sV/home/anderson/Documents/siamese_dataset/linux_data/vul/CVE-2010-3442/linux-2.6.14#control.c#small#snd_ctl_new#191.c
p202
I7
sV/home/anderson/Documents/siamese_dataset/linux_data/fix/CVE-2009-4308/linux-5.1.14#super.c#small#ext4_decode_error#593.c
p203
I20
sV/home/anderson/Documents/siamese_dataset/linux_data/fix/CVE-2009-2698/linux-3.14.44#udp.c#small#udp_sendmsg#845.c
p204
I194
sV/home/anderson/Documents/siamese_dataset/linux_data/vul/CVE-2007-6417/linux-2.6.22#shmem.c#small#shmem_getpage#1085.c
p205
I153
sV/home/anderson/Documents/siamese_dataset/linux_data/fix/CVE-2012-0044/linux-3.19.2#drm_crtc.c#small#drm_mode_dirtyfb_ioctl#3379.c
p206
I35
sV/home/anderson/Documents/siamese_dataset/linux_data/fix/CVE-2018-6554/linux-3.16.62#af_irda.c#small#irda_bind#776.c
p207
I4
sV/home/anderson/Documents/siamese_dataset/linux_data/fix/CVE-2009-0746/linux-2.6.28.8#namei.c#small#make_indexed_dir#1340.c
p208
I32
sV/home/anderson/Documents/siamese_dataset/linux_data/fix/CVE-2009-1527/linux-3.12.1#ptrace.c#small#ptrace_attach#225.c
p209
I59
sV/home/anderson/Documents/siamese_dataset/linux_data/vul/CVE-2006-4997/linux-2.6.13#clip.c#small#clip_mkip#476.c
p210
I28
sV/home/anderson/Documents/siamese_dataset/linux_data/vul/CVE-2020-27194/linux-5.8.rc4#verifier.c#small#scalar32_min_max_or#5488.c
p211
I7
sV/home/anderson/Documents/siamese_dataset/linux_data/fix/CVE-2009-2698/linux-3.18.122#udp.c#small#udp_sendmsg#864.c
p212
I197
sV/home/anderson/Documents/siamese_dataset/linux_data/vul/CVE-2008-3534/linux-2.4.7#shmem.c#small#shmem_delete_inode#360.c
p213
I15
sV/home/anderson/Documents/siamese_dataset/linux_data/fix/CVE-2010-4081/linux-3.4.71#hdspm.c#small#snd_hdspm_hwdep_ioctl#6094.c
p214
I108
sV/home/anderson/Documents/siamese_dataset/linux_data/fix/CVE-2010-0437/linux-4.9.23#ip6_output.c#small#ip6_dst_lookup_tail#924.c
p215
I45
sV/home/anderson/Documents/siamese_dataset/linux_data/fix/CVE-2011-0711/linux-3.10.5#xfs_fsops.c#small#xfs_fs_geometry#47.c
p216
I8
sV/home/anderson/Documents/siamese_dataset/linux_data/fix/CVE-2010-2066/linux-3.2.64#move_extent.c#small#mext_check_arguments#911.c
p217
I17
sV/home/anderson/Documents/siamese_dataset/linux_data/fix/CVE-2014-2889/linux-3.12.1#bpf_jit_comp.c#small#bpf_jit_compile#181.c
p218
I385
sV/home/anderson/Documents/siamese_dataset/linux_data/vul/CVE-2008-2136/linux-2.4.2#sit.c#small#ipip6_rcv#385.c
p219
I35
sV/home/anderson/Documents/siamese_dataset/linux_data/vul/CVE-2005-3858/linux-2.6.8#ip6_input.c#small#ip6_input_finish#134.c
p220
I65
sV/home/anderson/Documents/siamese_dataset/linux_data/fix/CVE-2010-2954/linux-4.2.8#af_irda.c#small#irda_bind#764.c
p221
I40
sV/home/anderson/Documents/siamese_dataset/linux_data/vul/CVE-2011-1771/linux-2.6.16#file.c#small#cifs_close#460.c
p222
I41
sV/home/anderson/Documents/siamese_dataset/linux_data/fix/CVE-2019-18805/linux-5.9.rc4#tcp_input.c#small#tcp_ack_update_rtt#2928.c
p223
I26
sV/home/anderson/Documents/siamese_dataset/linux_data/vul/CVE-2010-4079/linux-2.6.35.2#ivtvfb.c#small#ivtvfb_ioctl#450.c
p224
I12
sV/home/anderson/Documents/siamese_dataset/linux_data/vul/CVE-2009-2698/linux-2.6.11.5#udp.c#small#udp_sendmsg#482.c
p225
I151
sV/home/anderson/Documents/siamese_dataset/linux_data/fix/CVE-2021-37576/linux-5.14#book3s_rtas.c#small#kvmppc_rtas_hcall#218.c
p226
I28
sV/home/anderson/Documents/siamese_dataset/linux_data/vul/CVE-2009-1961/linux-2.6.27.21#file.c#small#ocfs2_file_splice_write#2078.c
p227
I35
sV/home/anderson/Documents/siamese_dataset/linux_data/vul/CVE-2010-2803/linux-2.6.22#drm_drv.c#small#drm_ioctl#478.c
p228
I40
sV/home/anderson/Documents/siamese_dataset/linux_data/fix/CVE-2007-6417/linux-2.6.9#shmem.c#small#shmem_getpage#878.c
p229
I153
sV/home/anderson/Documents/siamese_dataset/linux_data/vul/CVE-2014-9584/linux-2.5.4#rock.c#small#parse_rock_ridge_inode_internal#230.c
p230
I42
sV/home/anderson/Documents/siamese_dataset/linux_data/fix/CVE-2010-2240/linux-3.18.21#memory.c#small#do_anonymous_page#2621.c
p231
I12
sV/home/anderson/Documents/siamese_dataset/linux_data/fix/CVE-2014-4667/linux-5.0.15#associola.c#small#sctp_association_free#336.c
p232
I8
sV/home/anderson/Documents/siamese_dataset/linux_data/fix/CVE-2009-2847/linux-4.8.2#signal.c#small#do_sigaltstack#3090.c
p233
I19
sV/home/anderson/Documents/siamese_dataset/linux_data/fix/CVE-2011-1927/linux-3.3#ip_fragment.c#small#ip_expire#224.c
p234
I37
sV/home/anderson/Documents/siamese_dataset/linux_data/vul/CVE-2013-6380/linux-3.10.5#commctrl.c#small#aac_send_raw_srb#465.c
p235
I44
sV/home/anderson/Documents/siamese_dataset/linux_data/fix/CVE-2010-4565/linux-4.9.30#bcm.c#small#bcm_connect#1557.c
p236
I41
sV/home/anderson/Documents/siamese_dataset/linux_data/fix/CVE-2020-25643/linux-5.17.rc8#hdlc_ppp.c#small#ppp_cp_parse_cr#369.c
p237
I16
sV/home/anderson/Documents/siamese_dataset/linux_data/fix/CVE-2011-1044/linux-5.1.14#uverbs_cmd.c#small#ib_uverbs_poll_cq#1156.c
p238
I22
sV/home/anderson/Documents/siamese_dataset/linux_data/vul/CVE-2009-0778/linux-2.6.16#icmp.c#small#icmp_send#433.c
p239
I45
sV/home/anderson/Documents/siamese_dataset/linux_data/vul/CVE-2006-5331/linux-2.6.16#traps.c#small#altivec_unavailable_exception#828.c
p240
I1
sV/home/anderson/Documents/siamese_dataset/linux_data/fix/CVE-2014-2309/linux-4.2.4#route.c#small#ip6_route_add#1959.c
p241
I7
sV/home/anderson/Documents/siamese_dataset/linux_data/fix/CVE-2012-4444/linux-4.4.150#reassembly.c#small#ip6_frag_queue#209.c
p242
I78
sV/home/anderson/Documents/siamese_dataset/linux_data/fix/CVE-2009-1630/linux-2.6.8.1#dir.c#small#nfs_permission#1501.c
p243
I18
sV/home/anderson/Documents/siamese_dataset/linux_data/vul/CVE-2010-2803/linux-2.6.27.8#drm_drv.c#small#drm_ioctl#447.c
p244
I42
sV/home/anderson/Documents/siamese_dataset/linux_data/vul/CVE-2010-4079/linux-2.6.28.10#ivtvfb.c#small#ivtvfb_ioctl#447.c
p245
I12
sV/home/anderson/Documents/siamese_dataset/linux_data/fix/CVE-2009-2698/linux-2.6.20#udp.c#small#udp_sendmsg#507.c
p246
I156
sV/home/anderson/Documents/siamese_dataset/linux_data/vul/CVE-2011-1017/linux-2.6.20#ldm.c#small#ldm_frag_add#1215.c
p247
I12
sV/home/anderson/Documents/siamese_dataset/linux_data/fix/CVE-2009-0778/linux-4.20.9#icmp.c#small#icmp_send#573.c
p248
I107
sV/home/anderson/Documents/siamese_dataset/linux_data/fix/CVE-2012-6547/linux-4.18.9#tun.c#small#__tun_chr_ioctl#2279.c
p249
I20
sV/home/anderson/Documents/siamese_dataset/linux_data/fix/CVE-2005-3858/linux-3.18.21#ip6_input.c#small#ip6_input_finish#201.c
p250
I51
sV/home/anderson/Documents/siamese_dataset/linux_data/vul/CVE-2009-2406/linux-2.6.30#keystore.c#small#parse_tag_11_packet#1399.c
p251
I3
sV/home/anderson/Documents/siamese_dataset/linux_data/vul/CVE-2009-2847/linux-2.6.13#signal.c#small#do_sigaltstack#2448.c
p252
I48
sV/home/anderson/Documents/siamese_dataset/linux_data/fix/CVE-2010-3848/linux-3.12.1#af_econet.c#small#econet_sendmsg#263.c
p253
I16
sV/home/anderson/Documents/siamese_dataset/linux_data/fix/CVE-2017-18249/linux-5.0.7#node.c#small#add_free_nid#2064.c
p254
I21
sV/home/anderson/Documents/siamese_dataset/linux_data/fix/CVE-2014-7841/linux-5.1.14#sm_make_chunk.c#small#sctp_process_param#2504.c
p255
I81
sV/home/anderson/Documents/siamese_dataset/linux_data/vul/CVE-2008-3534/linux-2.5.39#shmem.c#small#shmem_delete_inode#397.c
p256
I18
sV/home/anderson/Documents/siamese_dataset/linux_data/vul/CVE-2009-1630/linux-2.6.20#dir.c#small#nfs_permission#1927.c
p257
I10
sV/home/anderson/Documents/siamese_dataset/linux_data/vul/CVE-2018-6927/linux-2.6.11.2#futex.c#small#futex_requeue#334.c
p258
I60
sV/home/anderson/Documents/siamese_dataset/linux_data/vul/CVE-2010-2954/linux-2.6.27.25#af_irda.c#small#irda_open_tsap#465.c
p259
I1
sV/home/anderson/Documents/siamese_dataset/linux_data/vul/CVE-2014-0100/linux-3.12.1#inet_fragment.c#small#inet_frag_intern#193.c
p260
I11
sV/home/anderson/Documents/siamese_dataset/linux_data/vul/CVE-2009-4005/linux-2.6.11.8#hfc_usb.c#small#collect_rx_frame#843.c
p261
I19
sV/home/anderson/Documents/siamese_dataset/linux_data/vul/CVE-2010-3848/linux-2.6.14#af_econet.c#small#econet_sendmsg#252.c
p262
I16
sV/home/anderson/Documents/siamese_dataset/linux_data/vul/CVE-2010-3432/linux-2.6.32.14#output.c#small#sctp_packet_config#86.c
p263
I12
sV/home/anderson/Documents/siamese_dataset/linux_data/fix/CVE-2012-1583/linux-2.6.30.4#xfrm6_tunnel.c#small#xfrm6_tunnel_rcv#255.c
p264
I7
sV/home/anderson/Documents/siamese_dataset/linux_data/vul/CVE-2009-4005/linux-2.6.28.8#hfc_usb.c#small#collect_rx_frame#782.c
p265
I11
sV/home/anderson/Documents/siamese_dataset/linux_data/vul/CVE-2008-3534/linux-2.6.14#shmem.c#small#shmem_delete_inode#663.c
p266
I23
sV/home/anderson/Documents/siamese_dataset/linux_data/vul/CVE-2010-0006/linux-2.6.11.8#exthdrs.c#small#ipv6_hop_jumbo#435.c
p267
I29
sV/home/anderson/Documents/siamese_dataset/linux_data/fix/CVE-2010-2954/linux-3.10.5#af_irda.c#small#irda_open_tsap#465.c
p268
I1
sV/home/anderson/Documents/siamese_dataset/linux_data/fix/CVE-2009-2698/linux-4.18.9#udp.c#small#udp_sendmsg#866.c
p269
I201
sV/home/anderson/Documents/siamese_dataset/linux_data/fix/CVE-2009-2698/linux-3.18.80#udp.c#small#udp_sendmsg#864.c
p270
I195
sV/home/anderson/Documents/siamese_dataset/linux_data/fix/CVE-2009-0778/linux-3.10.5#icmp.c#small#icmp_send#481.c
p271
I50
sV/home/anderson/Documents/siamese_dataset/linux_data/vul/CVE-2006-6106/linux-2.4.29#capi.c#small#cmtp_recv_interopmsg#184.c
p272
I88
sV/home/anderson/Documents/siamese_dataset/linux_data/fix/CVE-2010-2240/linux-3.10.90#memory.c#small#do_anonymous_page#3223.c
p273
I14
sV/home/anderson/Documents/siamese_dataset/linux_data/vul/CVE-2014-7841/linux-3.2.64#sm_make_chunk.c#small#sctp_process_param#2448.c
p274
I27
sV/home/anderson/Documents/siamese_dataset/linux_data/fix/CVE-2021-37576/linux-5.15#book3s_rtas.c#small#kvmppc_rtas_hcall#218.c
p275
I28
sV/home/anderson/Documents/siamese_dataset/linux_data/fix/CVE-2010-2942/linux-4.4.1#act_simple.c#small#tcf_simp_dump#136.c
p276
I6
sV/home/anderson/Documents/siamese_dataset/linux_data/fix/CVE-2010-2066/linux-4.4.12#move_extent.c#small#mext_check_arguments#456.c
p277
I21
sV/home/anderson/Documents/siamese_dataset/linux_data/fix/CVE-2014-1690/linux-4.18.9#nf_nat_irc.c#small#help#29.c
p278
I41
sV/home/anderson/Documents/siamese_dataset/linux_data/vul/CVE-2011-4086/linux-3.4.8#transaction.c#small#journal_unmap_buffer#1848.c
p279
I89
sV/home/anderson/Documents/siamese_dataset/linux_data/fix/CVE-2014-2889/linux-3.3#bpf_jit_comp.c#small#bpf_jit_compile#121.c
p280
I339
sV/home/anderson/Documents/siamese_dataset/linux_data/fix/CVE-2009-4307/linux-3.18.21#super.c#small#ext4_fill_flex_info#1950.c
p281
I9
sV/home/anderson/Documents/siamese_dataset/linux_data/vul/CVE-2010-4165/linux-2.6.35.2#tcp.c#small#do_tcp_setsockopt#2106.c
p282
I110
sV/home/anderson/Documents/siamese_dataset/linux_data/fix/CVE-2014-5206/linux-4.4.126#namespace.c#small#do_remount#2236.c
p283
I53
sV/home/anderson/Documents/siamese_dataset/linux_data/fix/CVE-2010-1162/linux-3.4.36#tty_io.c#small#release_one_tty#1471.c
p284
I18
sV/home/anderson/Documents/siamese_dataset/linux_data/fix/CVE-2009-1338/linux-4.9.115#signal.c#small#kill_something_info#1384.c
p285
I24
sV/home/anderson/Documents/siamese_dataset/linux_data/fix/CVE-2020-25643/linux-5.15.rc1#hdlc_ppp.c#small#ppp_cp_parse_cr#369.c
p286
I16
sV/home/anderson/Documents/siamese_dataset/linux_data/fix/CVE-2014-1690/linux-4.4.123#nf_nat_irc.c#small#help#29.c
p287
I42
sV/home/anderson/Documents/siamese_dataset/linux_data/fix/CVE-2009-0746/linux-3.2.63#namei.c#small#make_indexed_dir#1336.c
p288
I32
sV/home/anderson/Documents/siamese_dataset/linux_data/fix/CVE-2009-1527/linux-3.4.8#ptrace.c#small#ptrace_attach#233.c
p289
I67
sV/home/anderson/Documents/siamese_dataset/linux_data/vul/CVE-2010-4073/linux-2.6.27.23#compat.c#small#compat_sys_shmctl#590.c
p290
I9
sV/home/anderson/Documents/siamese_dataset/linux_data/vul/CVE-2009-3638/linux-2.6.27.19#x86.c#small#kvm_arch_dev_ioctl#912.c
p291
I35
sV/home/anderson/Documents/siamese_dataset/linux_data/fix/CVE-2013-0349/linux-4.19.58#core.c#small#hidp_setup_hid#750.c
p292
I29
sV/home/anderson/Documents/siamese_dataset/linux_data/vul/CVE-2009-1527/linux-2.6.8#ptrace.c#small#ptrace_attach#81.c
p293
I31
sV/home/anderson/Documents/siamese_dataset/linux_data/vul/CVE-2010-2954/linux-2.6.33#af_irda.c#small#irda_bind#783.c
p294
I39
sV/home/anderson/Documents/siamese_dataset/linux_data/fix/CVE-2010-1173/linux-4.2.8#sm_make_chunk.c#small#sctp_process_unk_param#2053.c
p295
I18
sV/home/anderson/Documents/siamese_dataset/linux_data/vul/CVE-2010-3432/linux-2.6.8.1#output.c#small#sctp_packet_config#71.c
p296
I14
sV/home/anderson/Documents/siamese_dataset/linux_data/fix/CVE-2009-1630/linux-2.6.9#dir.c#small#nfs_permission#1555.c
p297
I17
sV/home/anderson/Documents/siamese_dataset/linux_data/vul/CVE-2010-1162/linux-2.6.32.4#tty_io.c#small#release_one_tty#1394.c
p298
I18
sV/home/anderson/Documents/siamese_dataset/linux_data/vul/CVE-2010-2942/linux-2.6.22#act_simple.c#small#tcf_simp_dump#156.c
p299
I6
sV/home/anderson/Documents/siamese_dataset/linux_data/fix/CVE-2008-2136/linux-2.6.34.2#sit.c#small#ipip6_rcv#541.c
p300
I6
sV/home/anderson/Documents/siamese_dataset/linux_data/fix/CVE-2009-2698/linux-4.9.116#udp.c#small#udp_sendmsg#870.c
p301
I200
sV/home/anderson/Documents/siamese_dataset/linux_data/fix/CVE-2008-5713/linux-2.6.29#sch_generic.c#small#__qdisc_run#180.c
p302
I12
sV/home/anderson/Documents/siamese_dataset/linux_data/vul/CVE-2006-4997/linux-2.6.11.3#clip.c#small#clip_mkip#473.c
p303
I28
sV/home/anderson/Documents/siamese_dataset/linux_data/fix/CVE-2013-6432/linux-4.4.10#ping.c#small#ping_recvmsg#855.c
p304
I53
sV/home/anderson/Documents/siamese_dataset/linux_data/fix/CVE-2005-0180/linux-3.2.64#scsi_ioctl.c#small#sg_scsi_ioctl#429.c
p305
I35
sV/home/anderson/Documents/siamese_dataset/linux_data/vul/CVE-2018-6554/linux-2.3.26#af_irda.c#small#irda_bind#460.c
p306
I4
sV/home/anderson/Documents/siamese_dataset/linux_data/vul/CVE-2010-4649/linux-2.6.16#uverbs_cmd.c#small#ib_uverbs_poll_cq#678.c
p307
I16
sV/home/anderson/Documents/siamese_dataset/linux_data/fix/CVE-2009-2847/linux-2.6.32.20#signal.c#small#do_sigaltstack#2434.c
p308
I17
sV/home/anderson/Documents/siamese_dataset/linux_data/fix/CVE-2009-1360/linux-2.6.32.15#inet6_hashtables.c#small#__inet6_check_established#207.c
p309
I51
sV/home/anderson/Documents/siamese_dataset/linux_data/fix/CVE-2012-3511/linux-4.2.4#madvise.c#small#madvise_remove#293.c
p310
I15
sV/home/anderson/Documents/siamese_dataset/linux_data/fix/CVE-2010-0437/linux-3.12.1#ip6_output.c#small#ip6_dst_lookup_tail#947.c
p311
I28
sV/home/anderson/Documents/siamese_dataset/linux_data/fix/CVE-2009-1630/linux-4.9.23#dir.c#small#nfs_permission#2495.c
p312
I8
sV/home/anderson/Documents/siamese_dataset/linux_data/fix/CVE-2006-4997/linux-3.0.55#clip.c#small#clip_mkip#451.c
p313
I37
sV/home/anderson/Documents/siamese_dataset/linux_data/fix/CVE-2009-0778/linux-4.18.9#icmp.c#small#icmp_send#576.c
p314
I109
sV/home/anderson/Documents/siamese_dataset/linux_data/vul/CVE-2021-37576/linux-5.10#book3s_rtas.c#small#kvmppc_rtas_hcall#218.c
p315
I33
sV/home/anderson/Documents/siamese_dataset/linux_data/fix/CVE-2011-1044/linux-3.0.55#uverbs_cmd.c#small#ib_uverbs_poll_cq#922.c
p316
I23
sV/home/anderson/Documents/siamese_dataset/linux_data/vul/CVE-2009-4005/linux-2.6.16#hfc_usb.c#small#collect_rx_frame#830.c
p317
I13
sV/home/anderson/Documents/siamese_dataset/linux_data/vul/CVE-2013-4588/linux-2.6.29.1#ip_vs_ctl.c#small#do_ip_vs_get_ctl#2349.c
p318
I16
sV/home/anderson/Documents/siamese_dataset/linux_data/vul/CVE-2010-2066/linux-2.6.31#move_extent.c#small#mext_check_arguments#895.c
p319
I114
sV/home/anderson/Documents/siamese_dataset/linux_data/fix/CVE-2022-25258/linux-5.17.rc8#composite.c#small#composite_setup#1681.c
p320
I311
sV/home/anderson/Documents/siamese_dataset/linux_data/fix/CVE-2009-2698/linux-3.10.90#udp.c#small#udp_sendmsg#823.c
p321
I192
sV/home/anderson/Documents/siamese_dataset/linux_data/fix/CVE-2009-0745/linux-2.6.30#resize.c#small#ext4_group_add#738.c
p322
I53
sV/home/anderson/Documents/siamese_dataset/linux_data/vul/CVE-2005-3858/linux-2.6.11.2#ip6_input.c#small#ip6_input_finish#161.c
p323
I53
sV/home/anderson/Documents/siamese_dataset/linux_data/fix/CVE-2012-0044/linux-3.10.5#drm_crtc.c#small#drm_mode_dirtyfb_ioctl#2514.c
p324
I35
sV/home/anderson/Documents/siamese_dataset/linux_data/vul/CVE-2010-0006/linux-2.5.75#exthdrs.c#small#ipv6_hop_jumbo#424.c
p325
I26
sV/home/anderson/Documents/siamese_dataset/linux_data/fix/CVE-2006-5331/linux-4.9.28#traps.c#small#altivec_unavailable_exception#1372.c
p326
I1
sV/home/anderson/Documents/siamese_dataset/linux_data/vul/CVE-2010-4165/linux-2.6.20#tcp.c#small#do_tcp_setsockopt#1775.c
p327
I37
sV/home/anderson/Documents/siamese_dataset/linux_data/vul/CVE-2018-6927/linux-2.6.19#futex.c#small#futex_requeue#806.c
p328
I51
sV/home/anderson/Documents/siamese_dataset/linux_data/fix/CVE-2009-1630/linux-3.0.21#dir.c#small#nfs_permission#2286.c
p329
I11
sV/home/anderson/Documents/siamese_dataset/linux_data/vul/CVE-2010-3848/linux-2.6.20#af_econet.c#small#econet_sendmsg#264.c
p330
I16
sV/home/anderson/Documents/siamese_dataset/linux_data/fix/CVE-2010-2803/linux-3.3#drm_drv.c#small#drm_ioctl#379.c
p331
I67
sV/home/anderson/Documents/siamese_dataset/linux_data/fix/CVE-2011-1017/linux-4.19#ldm.c#small#ldm_frag_add#1241.c
p332
I9
sV/home/anderson/Documents/siamese_dataset/linux_data/vul/CVE-2010-3877/linux-2.6.27.35#socket.c#small#get_name#390.c
p333
I7
sV/home/anderson/Documents/siamese_dataset/linux_data/fix/CVE-2010-0006/linux-5.1.14#exthdrs.c#small#ipv6_hop_jumbo#745.c
p334
I5
sV/home/anderson/Documents/siamese_dataset/linux_data/fix/CVE-2009-4895/linux-3.2.12#tty_io.c#small#tty_fasync#2052.c
p335
I5
sV/home/anderson/Documents/siamese_dataset/linux_data/fix/CVE-2014-9584/linux-4.9.30#rock.c#small#parse_rock_ridge_inode_internal#307.c
p336
I53
sV/home/anderson/Documents/siamese_dataset/linux_data/vul/CVE-2010-4163/linux-2.6.31.2#blk-map.c#small#blk_rq_map_user_iov#190.c
p337
I1
sV/home/anderson/Documents/siamese_dataset/linux_data/fix/CVE-2009-0746/linux-3.16.62#namei.c#small#make_indexed_dir#1760.c
p338
I38
sV/home/anderson/Documents/siamese_dataset/linux_data/vul/CVE-2010-0006/linux-2.6.11.2#exthdrs.c#small#ipv6_hop_jumbo#584.c
p339
I4
sV/home/anderson/Documents/siamese_dataset/linux_data/fix/CVE-2010-1173/linux-4.9.115#sm_make_chunk.c#small#sctp_process_unk_param#2066.c
p340
I18
sV/home/anderson/Documents/siamese_dataset/linux_data/fix/CVE-2012-4444/linux-4.19.8#reassembly.c#small#ip6_frag_queue#110.c
p341
I72
sV/home/anderson/Documents/siamese_dataset/linux_data/fix/CVE-2009-0746/linux-4.8.2#namei.c#small#make_indexed_dir#1957.c
p342
I35
sV/home/anderson/Documents/siamese_dataset/linux_data/fix/CVE-2010-2942/linux-4.7.5#act_mirred.c#small#tcf_mirred_dump#206.c
p343
I5
sV/home/anderson/Documents/siamese_dataset/linux_data/fix/CVE-2009-2847/linux-2.6.39.4#signal.c#small#do_sigaltstack#2570.c
p344
I17
sV/home/anderson/Documents/siamese_dataset/linux_data/vul/CVE-2009-0778/linux-2.6.11.2#icmp.c#small#icmp_send#432.c
p345
I45
sV/home/anderson/Documents/siamese_dataset/linux_data/fix/CVE-2009-2698/linux-2.6.19#udp.c#small#udp_sendmsg#506.c
p346
I154
sV/home/anderson/Documents/siamese_dataset/linux_data/fix/CVE-2009-0746/linux-2.6.32.8#namei.c#small#make_indexed_dir#1379.c
p347
I32
sV/home/anderson/Documents/siamese_dataset/linux_data/vul/CVE-2010-3877/linux-2.6.19#socket.c#small#get_name#360.c
p348
I8
sV/home/anderson/Documents/siamese_dataset/linux_data/vul/CVE-2010-0006/linux-2.3.43#exthdrs.c#small#ipv6_hop_jumbo#450.c
p349
I25
sV/home/anderson/Documents/siamese_dataset/linux_data/vul/CVE-2022-25258/linux-5.10#composite.c#small#composite_setup#1628.c
p350
I298
sV/home/anderson/Documents/siamese_dataset/linux_data/vul/CVE-2010-0006/linux-2.5.5#exthdrs.c#small#ipv6_hop_jumbo#479.c
p351
I26
sV/home/anderson/Documents/siamese_dataset/linux_data/fix/CVE-2010-2803/linux-3.10.5#drm_drv.c#small#drm_ioctl#373.c
p352
I72
sV/home/anderson/Documents/siamese_dataset/linux_data/vul/CVE-2010-0437/linux-2.6.11.2#ip6_output.c#small#ip6_dst_lookup_tail#920.c
p353
I23
sV/home/anderson/Documents/siamese_dataset/linux_data/vul/CVE-2011-1078/linux-2.6.38.1#sco.c#small#sco_sock_getsockopt_old#669.c
p354
I5
sV/home/anderson/Documents/siamese_dataset/linux_data/vul/CVE-2010-3849/linux-2.6.7#af_econet.c#small#econet_sendmsg#249.c
p355
I30
sV/home/anderson/Documents/siamese_dataset/linux_data/fix/CVE-2014-7841/linux-4.9.30#sm_make_chunk.c#small#sctp_process_param#2494.c
p356
I78
sV/home/anderson/Documents/siamese_dataset/linux_data/vul/CVE-2005-4635/linux-2.6.13#fib_frontend.c#small#nl_fib_input#543.c
p357
I16
sV/home/anderson/Documents/siamese_dataset/linux_data/fix/CVE-2010-4165/linux-4.18.9#tcp.c#small#do_tcp_setsockopt#2711.c
p358
I71
sV/home/anderson/Documents/siamese_dataset/linux_data/fix/CVE-2019-18805/linux-5.10#tcp_input.c#small#tcp_ack_update_rtt#3004.c
p359
I26
sV/home/anderson/Documents/siamese_dataset/linux_data/vul/CVE-2014-9584/linux-3.10.5#rock.c#small#parse_rock_ridge_inode_internal#291.c
p360
I51
sV/home/anderson/Documents/siamese_dataset/linux_data/fix/CVE-2009-0745/linux-3.2.64#resize.c#small#ext4_group_add#751.c
p361
I49
sV/home/anderson/Documents/siamese_dataset/linux_data/vul/CVE-2009-1527/linux-2.6.22#ptrace.c#small#ptrace_attach#161.c
p362
I18
sV/home/anderson/Documents/siamese_dataset/linux_data/vul/CVE-2014-5206/linux-3.0.55#namespace.c#small#do_remount#1819.c
p363
I27
sV/home/anderson/Documents/siamese_dataset/linux_data/vul/CVE-2011-1771/linux-2.6.36.4#file.c#small#cifs_close#567.c
p364
I48
sV/home/anderson/Documents/siamese_dataset/linux_data/vul/CVE-2010-2226/linux-2.6.28.1#xfs_dfrag.c#small#xfs_swapext#50.c
p365
I27
sV/home/anderson/Documents/siamese_dataset/linux_data/vul/CVE-2010-1162/linux-2.6.22#tty_io.c#small#release_one_tty#2196.c
p366
I29
sV/home/anderson/Documents/siamese_dataset/linux_data/fix/CVE-2009-1630/linux-3.10.5#dir.c#small#nfs_permission#2217.c
p367
I11
sV/home/anderson/Documents/siamese_dataset/linux_data/vul/CVE-2010-4163/linux-2.6.29.1#blk-map.c#small#blk_rq_map_user_iov#191.c
p368
I1
sV/home/anderson/Documents/siamese_dataset/linux_data/fix/CVE-2005-0180/linux-3.16.62#scsi_ioctl.c#small#sg_scsi_ioctl#409.c
p369
I40
sV/home/anderson/Documents/siamese_dataset/linux_data/fix/CVE-2008-2136/linux-2.6.16#sit.c#small#ipip6_rcv#369.c
p370
I6
sV/home/anderson/Documents/siamese_dataset/linux_data/fix/CVE-2014-0100/linux-4.7.5#inet_fragment.c#small#inet_frag_intern#317.c
p371
I6
sV/home/anderson/Documents/siamese_dataset/linux_data/fix/CVE-2017-18221/linux-5.0.10#mlock.c#small#__munlock_pagevec#290.c
p372
I5
sV/home/anderson/Documents/siamese_dataset/linux_data/fix/CVE-2014-4655/linux-4.9.115#control.c#small#snd_ctl_elem_add#1229.c
p373
I34
sV/home/anderson/Documents/siamese_dataset/linux_data/fix/CVE-2014-1446/linux-5.1.4#yam.c#small#yam_ioctl#938.c
p374
I107
sV/home/anderson/Documents/siamese_dataset/linux_data/vul/CVE-2009-1338/linux-2.6.27.1#signal.c#small#kill_something_info#1124.c
p375
I21
sV/home/anderson/Documents/siamese_dataset/linux_data/vul/CVE-2009-0746/linux-2.6.27.1#namei.c#small#make_indexed_dir#1360.c
p376
I40
sV/home/anderson/Documents/siamese_dataset/linux_data/fix/CVE-2009-2698/linux-2.6.27.1#udp.c#small#udp_sendmsg#532.c
p377
I161
sV/home/anderson/Documents/siamese_dataset/linux_data/fix/CVE-2009-4308/linux-3.4.52#super.c#small#ext4_decode_error#573.c
p378
I14
sV/home/anderson/Documents/siamese_dataset/linux_data/fix/CVE-2009-4895/linux-3.10.90#tty_io.c#small#tty_fasync#2188.c
p379
I7
sV/home/anderson/Documents/siamese_dataset/linux_data/vul/CVE-2011-1593/linux-2.6.19#pid.c#small#next_pidmap#152.c
p380
I1
sV/home/anderson/Documents/siamese_dataset/linux_data/fix/CVE-2007-6417/linux-2.6.8#shmem.c#small#shmem_getpage#861.c
p381
I145
sV/home/anderson/Documents/siamese_dataset/linux_data/vul/CVE-2014-7841/linux-3.12.1#sm_make_chunk.c#small#sctp_process_param#2498.c
p382
I28
sV/home/anderson/Documents/siamese_dataset/linux_data/vul/CVE-2014-0131/linux-3.0.21#skbuff.c#small#skb_segment#2498.c
p383
I6
sV/home/anderson/Documents/siamese_dataset/linux_data/vul/CVE-2011-1771/linux-2.6.32.23#file.c#small#cifs_close#590.c
p384
I50
sV/home/anderson/Documents/siamese_dataset/linux_data/vul/CVE-2010-3848/linux-2.6.27.35#af_econet.c#small#econet_sendmsg#263.c
p385
I16
sV/home/anderson/Documents/siamese_dataset/linux_data/vul/CVE-2011-3359/linux-2.6.27.23#dma.c#small#dma_rx#1508.c
p386
I52
sV/home/anderson/Documents/siamese_dataset/linux_data/vul/CVE-2010-4649/linux-2.6.19#uverbs_cmd.c#small#ib_uverbs_poll_cq#893.c
p387
I16
sV/home/anderson/Documents/siamese_dataset/linux_data/fix/CVE-2010-3848/linux-3.4.52#af_econet.c#small#econet_sendmsg#262.c
p388
I16
sV/home/anderson/Documents/siamese_dataset/linux_data/fix/CVE-2010-2954/linux-3.0.21#af_irda.c#small#irda_open_tsap#466.c
p389
I1
sV/home/anderson/Documents/siamese_dataset/linux_data/vul/CVE-2018-6554/linux-2.6.8#af_irda.c#small#irda_bind#778.c
p390
I4
sV/home/anderson/Documents/siamese_dataset/linux_data/fix/CVE-2009-2698/linux-2.6.35.2#udp.c#small#udp_sendmsg#772.c
p391
I167
sV/home/anderson/Documents/siamese_dataset/linux_data/fix/CVE-2014-4667/linux-4.6.5#associola.c#small#sctp_association_free#324.c
p392
I8
sV/home/anderson/Documents/siamese_dataset/linux_data/vul/CVE-2010-0006/linux-2.6.14#exthdrs.c#small#ipv6_hop_jumbo#436.c
p393
I29
sV/home/anderson/Documents/siamese_dataset/linux_data/fix/CVE-2014-7841/linux-4.20.9#sm_make_chunk.c#small#sctp_process_param#2513.c
p394
I77
sV/home/anderson/Documents/siamese_dataset/linux_data/fix/CVE-2011-1013/linux-3.18.21#drm_irq.c#small#drm_modeset_ctl#1341.c
p395
I5
sV/home/anderson/Documents/siamese_dataset/linux_data/fix/CVE-2010-2066/linux-3.0.21#move_extent.c#small#mext_check_arguments#946.c
p396
I17
sV/home/anderson/Documents/siamese_dataset/linux_data/fix/CVE-2009-0745/linux-3.12.1#resize.c#small#ext4_group_add#751.c
p397
I49
sV/home/anderson/Documents/siamese_dataset/linux_data/vul/CVE-2008-5713/linux-2.6.22#sch_generic.c#small#__qdisc_run#180.c
p398
I8
sV/home/anderson/Documents/siamese_dataset/linux_data/vul/CVE-2011-1771/linux-2.6.27.42#file.c#small#cifs_close#476.c
p399
I55
sV/home/anderson/Documents/siamese_dataset/linux_data/vul/CVE-2011-1044/linux-2.6.31#uverbs_cmd.c#small#ib_uverbs_poll_cq#878.c
p400
I16
sV/home/anderson/Documents/siamese_dataset/linux_data/vul/CVE-2010-2066/linux-2.6.32.16#move_extent.c#small#mext_check_arguments#943.c
p401
I113
sV/home/anderson/Documents/siamese_dataset/linux_data/vul/CVE-2011-1771/linux-2.6.11.2#file.c#small#cifs_close#576.c
p402
I4
sV/home/anderson/Documents/siamese_dataset/linux_data/fix/CVE-2008-2136/linux-2.5.24#sit.c#small#ipip6_rcv#384.c
p403
I6
sV/home/anderson/Documents/siamese_dataset/linux_data/vul/CVE-2009-1527/linux-2.6.16#ptrace.c#small#ptrace_attach#152.c
p404
I20
sV/home/anderson/Documents/siamese_dataset/linux_data/fix/CVE-2010-0437/linux-3.10.90#ip6_output.c#small#ip6_dst_lookup_tail#900.c
p405
I30
sV/home/anderson/Documents/siamese_dataset/linux_data/fix/CVE-2011-0711/linux-4.18.9#xfs_fsops.c#small#xfs_fs_geometry#52.c
p406
I8
sV/home/anderson/Documents/siamese_dataset/linux_data/fix/CVE-2011-3359/linux-2.6.32.5#dma.c#small#dma_rx#1486.c
p407
I37
sV/home/anderson/Documents/siamese_dataset/linux_data/vul/CVE-2018-6554/linux-2.4.4#af_irda.c#small#irda_bind#774.c
p408
I4
sV/home/anderson/Documents/siamese_dataset/linux_data/vul/CVE-2010-3848/linux-2.6.33#af_econet.c#small#econet_sendmsg#263.c
p409
I16
sV/home/anderson/Documents/siamese_dataset/linux_data/fix/CVE-2008-3534/linux-2.6.9#shmem.c#small#shmem_delete_inode#601.c
p410
I22
sV/home/anderson/Documents/siamese_dataset/linux_data/vul/CVE-2009-1630/linux-2.6.14#dir.c#small#nfs_permission#1635.c
p411
I8
sV/home/anderson/Documents/siamese_dataset/linux_data/fix/CVE-2009-3228/linux-3.10.90#sch_api.c#small#tc_fill_tclass#1553.c
p412
I16
sV/home/anderson/Documents/siamese_dataset/linux_data/fix/CVE-2010-4565/linux-3.0.55#bcm.c#small#bcm_connect#1492.c
p413
I36
sV/home/anderson/Documents/siamese_dataset/linux_data/fix/CVE-2009-1360/linux-4.4.134#inet6_hashtables.c#small#__inet6_check_established#194.c
p414
I43
sV/home/anderson/Documents/siamese_dataset/linux_data/fix/CVE-2009-1961/linux-3.10.5#file.c#small#ocfs2_file_splice_write#2446.c
p415
I31
sV/home/anderson/Documents/siamese_dataset/linux_data/fix/CVE-2009-3726/linux-4.9.23#nfs4proc.c#small#nfs4_proc_lock#6436.c
p416
I14
sV/home/anderson/Documents/siamese_dataset/linux_data/fix/CVE-2014-7841/linux-4.2.4#sm_make_chunk.c#small#sctp_process_param#2486.c
p417
I78
sV/home/anderson/Documents/siamese_dataset/linux_data/fix/CVE-2009-0745/linux-3.0.26#resize.c#small#ext4_group_add#731.c
p418
I50
sV/home/anderson/Documents/siamese_dataset/linux_data/vul/CVE-2011-1013/linux-2.6.34.2#drm_irq.c#small#drm_modeset_ctl#544.c
p419
I5
sV/home/anderson/Documents/siamese_dataset/linux_data/vul/CVE-2012-4444/linux-2.6.9#reassembly.c#small#ip6_frag_queue#422.c
p420
I62
sV/home/anderson/Documents/siamese_dataset/linux_data/vul/CVE-2010-3849/linux-2.6.13#af_econet.c#small#econet_sendmsg#252.c
p421
I29
sV/home/anderson/Documents/siamese_dataset/linux_data/vul/CVE-2014-2851/linux-3.12.1#ping.c#small#ping_init_sock#248.c
p422
I5
sV/home/anderson/Documents/siamese_dataset/linux_data/vul/CVE-2009-0746/linux-2.6.27.8#namei.c#small#make_indexed_dir#1357.c
p423
I40
sV/home/anderson/Documents/siamese_dataset/linux_data/vul/CVE-2020-25643/linux-5.8#hdlc_ppp.c#small#ppp_cp_parse_cr#372.c
p424
I15
sV/home/anderson/Documents/siamese_dataset/linux_data/vul/CVE-2009-1527/linux-2.6.29#ptrace.c#small#ptrace_attach#175.c
p425
I45
sV/home/anderson/Documents/siamese_dataset/linux_data/vul/CVE-2011-2906/linux-2.6.32.14#pmcraid.c#small#pmcraid_ioctl_passthrough#3434.c
p426
I69
sV/home/anderson/Documents/siamese_dataset/linux_data/fix/CVE-2011-4087/linux-3.4.52#br_netfilter.c#small#br_parse_ip_options#250.c
p427
I37
sV/home/anderson/Documents/siamese_dataset/linux_data/fix/CVE-2009-2406/linux-4.4.14#keystore.c#small#parse_tag_11_packet#1547.c
p428
I40
sV/home/anderson/Documents/siamese_dataset/linux_data/vul/CVE-2009-3722/linux-2.6.28.8#vmx.c#small#handle_dr#2675.c
p429
I7
sV/home/anderson/Documents/siamese_dataset/linux_data/vul/CVE-2012-4444/linux-2.6.30#reassembly.c#small#ip6_frag_queue#264.c
p430
I68
sV/home/anderson/Documents/siamese_dataset/linux_data/fix/CVE-2010-2521/linux-3.0.26#nfs4xdr.c#small#nfsd4_decode_compound#1399.c
p431
I50
sV/home/anderson/Documents/siamese_dataset/linux_data/vul/CVE-2010-3850/linux-2.6.10#af_econet.c#small#ec_dev_ioctl#605.c
p432
I21
sV/home/anderson/Documents/siamese_dataset/linux_data/fix/CVE-2008-2136/linux-2.5.9#sit.c#small#ipip6_rcv#383.c
p433
I6
sV/home/anderson/Documents/siamese_dataset/linux_data/fix/CVE-2010-4163/linux-4.4.133#blk-map.c#small#blk_rq_map_user_iov#81.c
p434
I19
sV/home/anderson/Documents/siamese_dataset/linux_data/fix/CVE-2018-6927/linux-4.18.9#futex.c#small#futex_requeue#1852.c
p435
I12
sV/home/anderson/Documents/siamese_dataset/linux_data/vul/CVE-2010-3848/linux-2.6.22#af_econet.c#small#econet_sendmsg#263.c
p436
I16
sV/home/anderson/Documents/siamese_dataset/linux_data/fix/CVE-2005-3858/linux-4.9.115#ip6_input.c#small#ip6_input_finish#219.c
p437
I65
sV/home/anderson/Documents/siamese_dataset/linux_data/fix/CVE-2010-0437/linux-4.4.122#ip6_output.c#small#ip6_dst_lookup_tail#916.c
p438
I45
sV/home/anderson/Documents/siamese_dataset/linux_data/vul/CVE-2014-4654/linux-3.4.36#control.c#small#snd_ctl_elem_add#1126.c
p439
I33
sV/home/anderson/Documents/siamese_dataset/linux_data/vul/CVE-2014-1739/linux-3.4.71#media-device.c#small#media_device_enum_entities#87.c
p440
I5
sV/home/anderson/Documents/siamese_dataset/linux_data/vul/CVE-2014-2309/linux-3.3#route.c#small#ip6_route_add#1220.c
p441
I45
sV/home/anderson/Documents/siamese_dataset/linux_data/fix/CVE-2013-0349/linux-5.0.10#core.c#small#hidp_setup_hid#750.c
p442
I29
sV/home/anderson/Documents/siamese_dataset/linux_data/vul/CVE-2009-1192/linux-2.6.28.1#generic.c#small#agp_generic_alloc_pages#1223.c
p443
I7
sV/home/anderson/Documents/siamese_dataset/linux_data/fix/CVE-2009-2698/linux-3.0.55#udp.c#small#udp_sendmsg#788.c
p444
I191
sV/home/anderson/Documents/siamese_dataset/linux_data/fix/CVE-2009-2698/linux-4.19.8#udp.c#small#udp_sendmsg#903.c
p445
I220
sV/home/anderson/Documents/siamese_dataset/linux_data/fix/CVE-2010-4163/linux-3.18.119#blk-map.c#small#blk_rq_map_user_iov#189.c
p446
I15
sV/home/anderson/Documents/siamese_dataset/linux_data/fix/CVE-2011-2496/linux-3.4.71#mremap.c#small#vma_to_resize#290.c
p447
I16
sV/home/anderson/Documents/siamese_dataset/linux_data/fix/CVE-2009-0778/linux-3.0.55#icmp.c#small#icmp_send#477.c
p448
I50
sV/home/anderson/Documents/siamese_dataset/linux_data/fix/CVE-2009-2698/linux-2.6.31.2#udp.c#small#udp_sendmsg#571.c
p449
I166
sV/home/anderson/Documents/siamese_dataset/linux_data/vul/CVE-2010-2803/linux-2.6.11.2#drm_drv.c#small#drm_ioctl#413.c
p450
I75
sV/home/anderson/Documents/siamese_dataset/linux_data/fix/CVE-2012-4444/linux-3.18.119#reassembly.c#small#ip6_frag_queue#209.c
p451
I78
sV/home/anderson/Documents/siamese_dataset/linux_data/vul/CVE-2013-4588/linux-2.6.27.51#ip_vs_ctl.c#small#do_ip_vs_get_ctl#2170.c
p452
I16
sV/home/anderson/Documents/siamese_dataset/linux_data/fix/CVE-2011-2496/linux-2.6.38.8#mremap.c#small#vma_to_resize#264.c
p453
I16
sV/home/anderson/Documents/siamese_dataset/linux_data/fix/CVE-2013-4588/linux-3.12.1#ip_vs_ctl.c#small#do_ip_vs_get_ctl#2570.c
p454
I6
sV/home/anderson/Documents/siamese_dataset/linux_data/fix/CVE-2009-0745/linux-2.6.32.15#resize.c#small#ext4_group_add#738.c
p455
I51
sV/home/anderson/Documents/siamese_dataset/linux_data/fix/CVE-2011-2906/linux-5.1.14#pmcraid.c#small#pmcraid_ioctl_passthrough#3585.c
p456
I71
sV/home/anderson/Documents/siamese_dataset/linux_data/vul/CVE-2014-0131/linux-3.10.5#skbuff.c#small#skb_segment#2762.c
p457
I6
sV/home/anderson/Documents/siamese_dataset/linux_data/fix/CVE-2014-2889/linux-3.2.64#bpf_jit_comp.c#small#bpf_jit_compile#121.c
p458
I334
sV/home/anderson/Documents/siamese_dataset/linux_data/fix/CVE-2014-5206/linux-4.9.118#namespace.c#small#do_remount#2260.c
p459
I48
sV/home/anderson/Documents/siamese_dataset/linux_data/fix/CVE-2010-2954/linux-3.16.62#af_irda.c#small#irda_bind#776.c
p460
I45
sV/home/anderson/Documents/siamese_dataset/linux_data/fix/CVE-2010-1173/linux-5.1.7#sm_make_chunk.c#small#sctp_process_unk_param#2082.c
p461
I19
sV/home/anderson/Documents/siamese_dataset/linux_data/fix/CVE-2013-6380/linux-4.18.9#commctrl.c#small#aac_send_raw_srb#478.c
p462
I44
sV/home/anderson/Documents/siamese_dataset/linux_data/vul/CVE-2012-1583/linux-2.6.16#xfrm6_tunnel.c#small#xfrm6_tunnel_rcv#398.c
p463
I12
sV/home/anderson/Documents/siamese_dataset/linux_data/vul/CVE-2009-1360/linux-2.6.22#inet6_hashtables.c#small#__inet6_check_established#164.c
p464
I56
sV/home/anderson/Documents/siamese_dataset/linux_data/fix/CVE-2014-2309/linux-4.18.9#route.c#small#ip6_route_add#2186.c
p465
I8
sV/home/anderson/Documents/siamese_dataset/linux_data/vul/CVE-2010-4526/linux-2.6.11.8#input.c#small#sctp_icmp_proto_unreachable#306.c
p466
I8
sV/home/anderson/Documents/siamese_dataset/linux_data/fix/CVE-2014-4655/linux-4.19.8#control.c#small#snd_ctl_elem_add#1241.c
p467
I34
sV/home/anderson/Documents/siamese_dataset/linux_data/fix/CVE-2018-6554/linux-3.2.63#af_irda.c#small#irda_bind#779.c
p468
I4
sV/home/anderson/Documents/siamese_dataset/linux_data/vul/CVE-2018-6554/linux-2.5.75#af_irda.c#small#irda_bind#774.c
p469
I4
sV/home/anderson/Documents/siamese_dataset/linux_data/fix/CVE-2014-5206/linux-5.0.15#namespace.c#small#do_remount#2308.c
p470
I33
sV/home/anderson/Documents/siamese_dataset/linux_data/fix/CVE-2009-0746/linux-3.14.44#namei.c#small#make_indexed_dir#1745.c
p471
I37
sV/home/anderson/Documents/siamese_dataset/linux_data/fix/CVE-2014-2523/linux-4.18.9#nf_conntrack_proto_dccp.c#small#dccp_error#554.c
p472
I10
sV/home/anderson/Documents/siamese_dataset/linux_data/fix/CVE-2009-1630/linux-2.6.10#dir.c#small#nfs_permission#1555.c
p473
I17
sV/home/anderson/Documents/siamese_dataset/linux_data/vul/CVE-2014-9584/linux-3.2.64#rock.c#small#parse_rock_ridge_inode_internal#294.c
p474
I52
sV/home/anderson/Documents/siamese_dataset/linux_data/fix/CVE-2009-1527/linux-4.9.23#ptrace.c#small#ptrace_attach#334.c
p475
I65
sV/home/anderson/Documents/siamese_dataset/linux_data/vul/CVE-2011-1771/linux-2.6.19#file.c#small#cifs_close#464.c
p476
I48
sV/home/anderson/Documents/siamese_dataset/linux_data/fix/CVE-2010-4526/linux-3.18.21#input.c#small#sctp_icmp_proto_unreachable#441.c
p477
I5
sV/home/anderson/Documents/siamese_dataset/linux_data/fix/CVE-2010-0437/linux-4.5.5#ip6_output.c#small#ip6_dst_lookup_tail#904.c
p478
I45
sV/home/anderson/Documents/siamese_dataset/linux_data/fix/CVE-2014-2889/linux-3.10.90#bpf_jit_comp.c#small#bpf_jit_compile#147.c
p479
I389
sV/home/anderson/Documents/siamese_dataset/linux_data/fix/CVE-2011-3359/linux-3.0.21#dma.c#small#dma_rx#1502.c
p480
I37
sV/home/anderson/Documents/siamese_dataset/linux_data/vul/CVE-2009-3638/linux-2.6.30.4#x86.c#small#kvm_arch_dev_ioctl#1057.c
p481
I35
sV/home/anderson/Documents/siamese_dataset/linux_data/fix/CVE-2014-4655/linux-4.9.182#control.c#small#snd_ctl_elem_add#1236.c
p482
I34
sV/home/anderson/Documents/siamese_dataset/linux_data/vul/CVE-2018-6554/linux-2.4.7#af_irda.c#small#irda_bind#789.c
p483
I4
sV/home/anderson/Documents/siamese_dataset/linux_data/fix/CVE-2011-2496/linux-4.4.123#mremap.c#small#vma_to_resize#345.c
p484
I17
sV/home/anderson/Documents/siamese_dataset/linux_data/vul/CVE-2013-7269/linux-3.0.55#af_netrom.c#small#nr_recvmsg#1139.c
p485
I43
sV/home/anderson/Documents/siamese_dataset/linux_data/vul/CVE-2012-6547/linux-3.2.12#tun.c#small#__tun_chr_ioctl#1234.c
p486
I13
sV/home/anderson/Documents/siamese_dataset/linux_data/fix/CVE-2014-2889/linux-3.4.71#bpf_jit_comp.c#small#bpf_jit_compile#126.c
p487
I336
sV/home/anderson/Documents/siamese_dataset/linux_data/fix/CVE-2009-2698/linux-3.2.63#udp.c#small#udp_sendmsg#790.c
p488
I191
sV/home/anderson/Documents/siamese_dataset/linux_data/vul/CVE-2008-3534/linux-2.5.46#shmem.c#small#shmem_delete_inode#534.c
p489
I19
sV/home/anderson/Documents/siamese_dataset/linux_data/vul/CVE-2011-1593/linux-2.6.20#pid.c#small#next_pidmap#157.c
p490
I1
sV/home/anderson/Documents/siamese_dataset/linux_data/vul/CVE-2007-6417/linux-2.6.13#shmem.c#small#shmem_getpage#939.c
p491
I153
sV/home/anderson/Documents/siamese_dataset/linux_data/vul/CVE-2010-4079/linux-2.6.27.23#ivtvfb.c#small#ivtvfb_ioctl#452.c
p492
I12
sV/home/anderson/Documents/siamese_dataset/linux_data/fix/CVE-2011-2213/linux-4.9.118#inet_diag.c#small#inet_diag_bc_audit#744.c
p493
I50
sV/home/anderson/Documents/siamese_dataset/linux_data/vul/CVE-2011-1771/linux-2.6.22#file.c#small#cifs_close#467.c
p494
I48
sV/home/anderson/Documents/siamese_dataset/linux_data/fix/CVE-2014-4667/linux-4.4.10#associola.c#small#sctp_association_free#324.c
p495
I8
sV/home/anderson/Documents/siamese_dataset/linux_data/fix/CVE-2014-0131/linux-4.18.9#skbuff.c#small#skb_segment#3493.c
p496
I10
sV/home/anderson/Documents/siamese_dataset/linux_data/fix/CVE-2014-2309/linux-4.4.99#route.c#small#ip6_route_add#2010.c
p497
I7
sV/home/anderson/Documents/siamese_dataset/linux_data/vul/CVE-2014-1739/linux-3.12.1#media-device.c#small#media_device_enum_entities#90.c
p498
I5
sV/home/anderson/Documents/siamese_dataset/linux_data/fix/CVE-2009-1630/linux-2.6.30#dir.c#small#nfs_permission#1927.c
p499
I8
sV/home/anderson/Documents/siamese_dataset/linux_data/vul/CVE-2010-3442/linux-2.6.27.8#control.c#small#snd_ctl_new#185.c
p500
I8
sV/home/anderson/Documents/siamese_dataset/linux_data/fix/CVE-2005-4635/linux-3.2.63#fib_frontend.c#small#nl_fib_input#906.c
p501
I23
sV/home/anderson/Documents/siamese_dataset/linux_data/vul/CVE-2018-6554/linux-2.2.18#af_irda.c#small#irda_bind#664.c
p502
I4
sV/home/anderson/Documents/siamese_dataset/linux_data/vul/CVE-2018-6554/linux-2.5.24#af_irda.c#small#irda_bind#780.c
p503
I4
sV/home/anderson/Documents/siamese_dataset/linux_data/fix/CVE-2020-27194/linux-5.13.rc1#verifier.c#small#scalar32_min_max_or#7149.c
p504
I7
sV/home/anderson/Documents/siamese_dataset/linux_data/fix/CVE-2009-0746/linux-4.2.8#namei.c#small#make_indexed_dir#1330.c
p505
I32
sV/home/anderson/Documents/siamese_dataset/linux_data/vul/CVE-2011-1585/linux-2.6.28.8#connect.c#small#cifs_find_smb_ses#1420.c
p506
I8
sV/home/anderson/Documents/siamese_dataset/linux_data/fix/CVE-2009-0746/linux-2.6.32.20#namei.c#small#make_indexed_dir#1379.c
p507
I32
sV/home/anderson/Documents/siamese_dataset/linux_data/vul/CVE-2018-6554/linux-2.5.47#af_irda.c#small#irda_bind#780.c
p508
I4
sV/home/anderson/Documents/siamese_dataset/linux_data/vul/CVE-2014-1446/linux-3.12.1#yam.c#small#yam_ioctl#949.c
p509
I104
sV/home/anderson/Documents/siamese_dataset/linux_data/vul/CVE-2014-9584/linux-2.5.61#rock.c#small#parse_rock_ridge_inode_internal#231.c
p510
I42
sV/home/anderson/Documents/siamese_dataset/linux_data/fix/CVE-2009-0745/linux-2.6.32.23#resize.c#small#ext4_group_add#738.c
p511
I51
sV/home/anderson/Documents/siamese_dataset/linux_data/fix/CVE-2014-1446/linux-3.2.63#yam.c#small#yam_ioctl#951.c
p512
I106
sV/home/anderson/Documents/siamese_dataset/linux_data/fix/CVE-2012-6547/linux-5.0.15#tun.c#small#__tun_chr_ioctl#3027.c
p513
I23
sV/home/anderson/Documents/siamese_dataset/linux_data/fix/CVE-2014-5206/linux-4.18.9#namespace.c#small#do_remount#2320.c
p514
I48
sV/home/anderson/Documents/siamese_dataset/linux_data/vul/CVE-2010-4165/linux-2.6.29.6#tcp.c#small#do_tcp_setsockopt#1997.c
p515
I37
sV/home/anderson/Documents/siamese_dataset/linux_data/vul/CVE-2010-3877/linux-2.6.22#socket.c#small#get_name#360.c
p516
I8
sV/home/anderson/Documents/siamese_dataset/linux_data/vul/CVE-2009-3726/linux-2.6.22#nfs4proc.c#small#nfs4_proc_lock#3447.c
p517
I15
sV/home/anderson/Documents/siamese_dataset/linux_data/fix/CVE-2005-3858/linux-3.0.38#ip6_input.c#small#ip6_input_finish#161.c
p518
I53
sV/home/anderson/Documents/siamese_dataset/linux_data/fix/CVE-2010-2240/linux-4.5.5#memory.c#small#do_anonymous_page#2714.c
p519
I15
sV/home/anderson/Documents/siamese_dataset/linux_data/fix/CVE-2011-1927/linux-2.6.9#ip_fragment.c#small#ip_expire#285.c
p520
I15
sV/home/anderson/Documents/siamese_dataset/linux_data/vul/CVE-2018-6554/linux-2.4.7#af_irda.c#small#irda_bind#785.c
p521
I4
sV/home/anderson/Documents/siamese_dataset/linux_data/fix/CVE-2010-2226/linux-3.0.38#xfs_dfrag.c#small#xfs_swapext#48.c
p522
I16
sV/home/anderson/Documents/siamese_dataset/linux_data/vul/CVE-2010-3850/linux-2.6.31.2#af_econet.c#small#ec_dev_ioctl#647.c
p523
I24
sV/home/anderson/Documents/siamese_dataset/linux_data/vul/CVE-2006-6106/linux-2.6.14#capi.c#small#cmtp_recv_interopmsg#191.c
p524
I88
sV/home/anderson/Documents/siamese_dataset/linux_data/fix/CVE-2010-4565/linux-4.19.57#bcm.c#small#bcm_connect#1581.c
p525
I43
sV/home/anderson/Documents/siamese_dataset/linux_data/fix/CVE-2011-4087/linux-3.0.38#br_netfilter.c#small#br_parse_ip_options#229.c
p526
I34
sV/home/anderson/Documents/siamese_dataset/linux_data/vul/CVE-2005-4635/linux-2.6.11.2#fib_frontend.c#small#nl_fib_input#882.c
p527
I23
sV/home/anderson/Documents/siamese_dataset/linux_data/vul/CVE-2008-2136/linux-2.4.6#sit.c#small#ipip6_rcv#383.c
p528
I6
sV/home/anderson/Documents/siamese_dataset/linux_data/fix/CVE-2010-2942/linux-4.8.2#act_mirred.c#small#tcf_mirred_dump#207.c
p529
I5
sV/home/anderson/Documents/siamese_dataset/linux_data/vul/CVE-2006-5331/linux-2.6.13#traps.c#small#altivec_unavailable_exception#455.c
p530
I1
sV/home/anderson/Documents/siamese_dataset/linux_data/fix/CVE-2011-4087/linux-3.18.119#br_netfilter.c#small#br_parse_ip_options#193.c
p531
I34
sV/home/anderson/Documents/siamese_dataset/linux_data/fix/CVE-2011-1927/linux-2.6.38.8#ip_fragment.c#small#ip_expire#206.c
p532
I36
sV/home/anderson/Documents/siamese_dataset/linux_data/vul/CVE-2009-4307/linux-2.6.31#super.c#small#ext4_fill_flex_info#1659.c
p533
I17
sV/home/anderson/Documents/siamese_dataset/linux_data/fix/CVE-2014-4027/linux-4.19.58#target_core_rd.c#small#rd_build_device_space#187.c
p534
I18
sV/home/anderson/Documents/siamese_dataset/linux_data/fix/CVE-2009-0745/linux-2.6.28.8#resize.c#small#ext4_group_add#737.c
p535
I53
sV/home/anderson/Documents/siamese_dataset/linux_data/fix/CVE-2007-1861/linux-3.16.62#fib_frontend.c#small#nl_fib_lookup#929.c
p536
I17
sV/home/anderson/Documents/siamese_dataset/linux_data/vul/CVE-2009-3722/linux-2.6.27.23#vmx.c#small#handle_dr#2462.c
p537
I7
sV/home/anderson/Documents/siamese_dataset/linux_data/vul/CVE-2014-5206/linux-3.4.36#namespace.c#small#do_remount#1655.c
p538
I28
sV/home/anderson/Documents/siamese_dataset/linux_data/fix/CVE-2010-4649/linux-3.0.55#uverbs_cmd.c#small#ib_uverbs_poll_cq#922.c
p539
I23
sV/home/anderson/Documents/siamese_dataset/linux_data/vul/CVE-2009-4308/linux-2.6.29#super.c#small#ext4_decode_error#326.c
p540
I14
sV/home/anderson/Documents/siamese_dataset/linux_data/fix/CVE-2009-2698/linux-3.16.62#udp.c#small#udp_sendmsg#884.c
p541
I199
sV/home/anderson/Documents/siamese_dataset/linux_data/fix/CVE-2010-4256/linux-3.19.2#pipe.c#small#pipe_fcntl#1048.c
p542
I6
sV/home/anderson/Documents/siamese_dataset/linux_data/vul/CVE-2011-1771/linux-2.6.13#file.c#small#cifs_close#446.c
p543
I32
sV/home/anderson/Documents/siamese_dataset/linux_data/vul/CVE-2018-6927/linux-3.18.21#futex.c#small#futex_requeue#1497.c
p544
I107
sV/home/anderson/Documents/siamese_dataset/linux_data/fix/CVE-2013-7269/linux-4.4.120#af_netrom.c#small#nr_recvmsg#1135.c
p545
I42
sV/home/anderson/Documents/siamese_dataset/linux_data/vul/CVE-2013-7348/linux-3.3#aio.c#small#ioctx_alloc#246.c
p546
I63
sV/home/anderson/Documents/siamese_dataset/linux_data/fix/CVE-2021-43057/linux-5.16#hooks.c#small#selinux_ptrace_traceme#2141.c
p547
I4
sV/home/anderson/Documents/siamese_dataset/linux_data/fix/CVE-2009-3638/linux-4.18.9#x86.c#small#kvm_arch_dev_ioctl#2982.c
p548
I34
sV/home/anderson/Documents/siamese_dataset/linux_data/fix/CVE-2010-2240/linux-2.6.39.4#memory.c#small#do_anonymous_page#2988.c
p549
I11
sV/home/anderson/Documents/siamese_dataset/linux_data/fix/CVE-2009-3228/linux-3.18.21#sch_api.c#small#tc_fill_tclass#1643.c
p550
I17
sV/home/anderson/Documents/siamese_dataset/linux_data/vul/CVE-2010-2942/linux-2.6.33#act_simple.c#small#tcf_simp_dump#161.c
p551
I6
sV/home/anderson/Documents/siamese_dataset/linux_data/fix/CVE-2013-4588/linux-2.6.33#ip_vs_ctl.c#small#do_ip_vs_get_ctl#2354.c
p552
I6
sV/home/anderson/Documents/siamese_dataset/linux_data/fix/CVE-2010-0006/linux-4.4.129#exthdrs.c#small#ipv6_hop_jumbo#562.c
p553
I4
sV/home/anderson/Documents/siamese_dataset/linux_data/vul/CVE-2012-4444/linux-2.6.32.16#reassembly.c#small#ip6_frag_queue#267.c
p554
I68
sV/home/anderson/Documents/siamese_dataset/linux_data/fix/CVE-2014-2889/linux-3.10.5#bpf_jit_comp.c#small#bpf_jit_compile#147.c
p555
I384
sV/home/anderson/Documents/siamese_dataset/linux_data/vul/CVE-2011-2496/linux-2.6.38.1#mremap.c#small#vma_to_resize#264.c
p556
I17
sV/home/anderson/Documents/siamese_dataset/linux_data/fix/CVE-2014-4654/linux-4.9.182#control.c#small#snd_ctl_elem_add#1236.c
p557
I41
sV/home/anderson/Documents/siamese_dataset/linux_data/vul/CVE-2009-1360/linux-2.6.20#inet6_hashtables.c#small#__inet6_check_established#164.c
p558
I56
sV/home/anderson/Documents/siamese_dataset/linux_data/fix/CVE-2009-4895/linux-5.1.14#tty_io.c#small#tty_fasync#2151.c
p559
I8
sV/home/anderson/Documents/siamese_dataset/linux_data/fix/CVE-2009-0746/linux-2.6.31.2#namei.c#small#make_indexed_dir#1350.c
p560
I32
sV/home/anderson/Documents/siamese_dataset/linux_data/fix/CVE-2009-3726/linux-2.6.32.14#nfs4proc.c#small#nfs4_proc_lock#4136.c
p561
I15
sV/home/anderson/Documents/siamese_dataset/linux_data/fix/CVE-2005-4635/linux-3.18.122#fib_frontend.c#small#nl_fib_input#954.c
p562
I24
sV/home/anderson/Documents/siamese_dataset/linux_data/fix/CVE-2007-1861/linux-3.12.1#fib_frontend.c#small#nl_fib_lookup#920.c
p563
I18
sV/home/anderson/Documents/siamese_dataset/linux_data/vul/CVE-2009-1961/linux-2.6.27.23#file.c#small#ocfs2_file_splice_write#2078.c
p564
I15
sV/home/anderson/Documents/siamese_dataset/linux_data/vul/CVE-2013-0290/linux-3.0.26#datagram.c#small#__skb_recv_datagram#160.c
p565
I20
sV/home/anderson/Documents/siamese_dataset/linux_data/fix/CVE-2010-2803/linux-3.4.52#drm_drv.c#small#drm_ioctl#383.c
p566
I71
sV/home/anderson/Documents/siamese_dataset/linux_data/fix/CVE-2014-4654/linux-5.0.10#control.c#small#snd_ctl_elem_add#1222.c
p567
I41
sV/home/anderson/Documents/siamese_dataset/linux_data/fix/CVE-2009-2698/linux-2.6.9#udp.c#small#udp_sendmsg#480.c
p568
I151
sV/home/anderson/Documents/siamese_dataset/linux_data/fix/CVE-2010-4163/linux-3.14.44#blk-map.c#small#blk_rq_map_user_iov#190.c
p569
I15
sV/home/anderson/Documents/siamese_dataset/linux_data/fix/CVE-2009-1338/linux-5.1.14#signal.c#small#kill_something_info#1484.c
p570
I24
sV/home/anderson/Documents/siamese_dataset/linux_data/vul/CVE-2010-2954/linux-2.6.11.5#af_irda.c#small#irda_bind#778.c
p571
I33
sV/home/anderson/Documents/siamese_dataset/linux_data/vul/CVE-2010-3848/linux-2.6.27.43#af_econet.c#small#econet_sendmsg#252.c
p572
I16
sV/home/anderson/Documents/siamese_dataset/linux_data/fix/CVE-2012-4444/linux-3.14.44#reassembly.c#small#ip6_frag_queue#206.c
p573
I78
sV/home/anderson/Documents/siamese_dataset/linux_data/fix/CVE-2005-3858/linux-3.19.2#ip6_input.c#small#ip6_input_finish#201.c
p574
I52
sV/home/anderson/Documents/siamese_dataset/linux_data/vul/CVE-2013-6380/linux-3.3#commctrl.c#small#aac_send_raw_srb#465.c
p575
I43
sV/home/anderson/Documents/siamese_dataset/linux_data/vul/CVE-2010-4081/linux-2.6.14#hdspm.c#small#snd_hdspm_hwdep_ioctl#3194.c
p576
I6
sV/home/anderson/Documents/siamese_dataset/linux_data/vul/CVE-2008-5713/linux-2.6.19#sch_generic.c#small#__qdisc_run#184.c
p577
I9
sV/home/anderson/Documents/siamese_dataset/linux_data/fix/CVE-2009-2847/linux-2.6.27.48#signal.c#small#do_sigaltstack#2351.c
p578
I17
sV/home/anderson/Documents/siamese_dataset/linux_data/vul/CVE-2010-3850/linux-2.6.22#af_econet.c#small#ec_dev_ioctl#647.c
p579
I24
sV/home/anderson/Documents/siamese_dataset/linux_data/fix/CVE-2012-4444/linux-2.6.37.5#reassembly.c#small#ip6_frag_queue#252.c
p580
I75
sV/home/anderson/Documents/siamese_dataset/linux_data/fix/CVE-2011-2496/linux-4.19.8#mremap.c#small#vma_to_resize#370.c
p581
I17
sV/home/anderson/Documents/siamese_dataset/linux_data/fix/CVE-2011-1044/linux-4.18.9#uverbs_cmd.c#small#ib_uverbs_poll_cq#1230.c
p582
I24
sV/home/anderson/Documents/siamese_dataset/linux_data/fix/CVE-2014-5206/linux-4.20.9#namespace.c#small#do_remount#2240.c
p583
I48
sV/home/anderson/Documents/siamese_dataset/linux_data/fix/CVE-2014-7841/linux-4.4.133#sm_make_chunk.c#small#sctp_process_param#2490.c
p584
I78
sV/home/anderson/Documents/siamese_dataset/linux_data/vul/CVE-2010-3442/linux-2.6.13#control.c#small#snd_ctl_new#191.c
p585
I7
sV/home/anderson/Documents/siamese_dataset/linux_data/fix/CVE-2009-3722/linux-3.18.21#vmx.c#small#handle_dr#5174.c
p586
I6
sV/home/anderson/Documents/siamese_dataset/linux_data/vul/CVE-2009-0746/linux-2.6.28.1#namei.c#small#make_indexed_dir#1350.c
p587
I40
sV/home/anderson/Documents/siamese_dataset/linux_data/vul/CVE-2013-1819/linux-3.4.8#xfs_buf.c#small#_xfs_buf_find#421.c
p588
I19
sV/home/anderson/Documents/siamese_dataset/linux_data/fix/CVE-2008-3534/linux-2.6.7#shmem.c#small#shmem_delete_inode#601.c
p589
I18
sV/home/anderson/Documents/siamese_dataset/linux_data/fix/CVE-2010-3850/linux-3.4.71#af_econet.c#small#ec_dev_ioctl#639.c
p590
I24
sV/home/anderson/Documents/siamese_dataset/linux_data/fix/CVE-2010-0437/linux-3.18.122#ip6_output.c#small#ip6_dst_lookup_tail#899.c
p591
I30
sV/home/anderson/Documents/siamese_dataset/linux_data/vul/CVE-2013-7348/linux-3.10.5#aio.c#small#ioctx_alloc#343.c
p592
I51
sV/home/anderson/Documents/siamese_dataset/linux_data/vul/CVE-2010-3848/linux-2.6.7#af_econet.c#small#econet_sendmsg#249.c
p593
I17
sV/home/anderson/Documents/siamese_dataset/linux_data/fix/CVE-2011-0711/linux-3.18.21#xfs_fsops.c#small#xfs_fs_geometry#50.c
p594
I8
sV/home/anderson/Documents/siamese_dataset/linux_data/vul/CVE-2013-1928/linux-3.0.38#compat_ioctl.c#small#do_video_set_spu_palette#202.c
p595
I6
sV/home/anderson/Documents/siamese_dataset/linux_data/fix/CVE-2011-1927/linux-3.0.26#ip_fragment.c#small#ip_expire#224.c
p596
I36
sV/home/anderson/Documents/siamese_dataset/linux_data/fix/CVE-2010-0006/linux-4.8.2#exthdrs.c#small#ipv6_hop_jumbo#563.c
p597
I4
sV/home/anderson/Documents/siamese_dataset/linux_data/fix/CVE-2008-2136/linux-2.5.45#sit.c#small#ipip6_rcv#384.c
p598
I6
sV/home/anderson/Documents/siamese_dataset/linux_data/vul/CVE-2010-2240/linux-2.6.34.2#memory.c#small#do_anonymous_page#2748.c
p599
I55
sV/home/anderson/Documents/siamese_dataset/linux_data/vul/CVE-2014-9584/linux-2.5.2#rock.c#small#parse_rock_ridge_inode_internal#230.c
p600
I42
sV/home/anderson/Documents/siamese_dataset/linux_data/fix/CVE-2022-25258/linux-5.17.rc6#composite.c#small#composite_setup#1681.c
p601
I311
sV/home/anderson/Documents/siamese_dataset/linux_data/fix/CVE-2009-1527/linux-4.4.12#ptrace.c#small#ptrace_attach#296.c
p602
I69
sV/home/anderson/Documents/siamese_dataset/linux_data/vul/CVE-2010-3850/linux-2.6.19#af_econet.c#small#ec_dev_ioctl#648.c
p603
I24
sV/home/anderson/Documents/siamese_dataset/linux_data/vul/CVE-2014-0100/linux-3.12.1#inet_fragment.c#small#inet_frag_intern#244.c
p604
I9
sV/home/anderson/Documents/siamese_dataset/linux_data/vul/CVE-2009-2698/linux-2.6.13#udp.c#small#udp_sendmsg#482.c
p605
I152
sV/home/anderson/Documents/siamese_dataset/linux_data/fix/CVE-2012-1583/linux-2.6.39.4#xfrm6_tunnel.c#small#xfrm6_tunnel_rcv#237.c
p606
I8
sV/home/anderson/Documents/siamese_dataset/linux_data/vul/CVE-2010-1173/linux-2.6.8#sm_make_chunk.c#small#sctp_process_unk_param#1580.c
p607
I15
sV/home/anderson/Documents/siamese_dataset/linux_data/fix/CVE-2011-2496/linux-3.0.21#mremap.c#small#vma_to_resize#263.c
p608
I16
sV/home/anderson/Documents/siamese_dataset/linux_data/fix/CVE-2010-2066/linux-4.19.58#move_extent.c#small#mext_check_arguments#446.c
p609
I21
sV/home/anderson/Documents/siamese_dataset/linux_data/fix/CVE-2008-2136/linux-2.6.35.2#sit.c#small#ipip6_rcv#541.c
p610
I6
sV/home/anderson/Documents/siamese_dataset/linux_data/vul/CVE-2011-1598/linux-2.6.32.5#bcm.c#small#bcm_release#1412.c
p611
I4
sV/home/anderson/Documents/siamese_dataset/linux_data/fix/CVE-2011-1078/linux-4.19.7#sco.c#small#sco_sock_getsockopt_old#858.c
p612
I43
sV/home/anderson/Documents/siamese_dataset/linux_data/fix/CVE-2009-2698/linux-4.7.5#udp.c#small#udp_sendmsg#872.c
p613
I204
sV/home/anderson/Documents/siamese_dataset/linux_data/fix/CVE-2008-2136/linux-2.6.19#sit.c#small#ipip6_rcv#368.c
p614
I6
sV/home/anderson/Documents/siamese_dataset/linux_data/vul/CVE-2014-1446/linux-3.12.1#yam.c#small#yam_ioctl#951.c
p615
I105
sV/home/anderson/Documents/siamese_dataset/linux_data/fix/CVE-2012-1583/linux-4.2.4#xfrm6_tunnel.c#small#xfrm6_tunnel_rcv#232.c
p616
I8
sV/home/anderson/Documents/siamese_dataset/linux_data/vul/CVE-2014-9584/linux-2.4.11#rock.c#small#parse_rock_ridge_inode_internal#230.c
p617
I41
sV/home/anderson/Documents/siamese_dataset/linux_data/vul/CVE-2009-1527/linux-2.6.13#ptrace.c#small#ptrace_attach#121.c
p618
I32
sV/home/anderson/Documents/siamese_dataset/linux_data/vul/CVE-2014-4654/linux-3.0.26#control.c#small#snd_ctl_elem_add#1066.c
p619
I33
sV/home/anderson/Documents/siamese_dataset/linux_data/fix/CVE-2009-4307/linux-3.4.8#super.c#small#ext4_fill_flex_info#1866.c
p620
I12
sV/home/anderson/Documents/siamese_dataset/linux_data/vul/CVE-2011-1017/linux-2.6.11.7#ldm.c#small#ldm_frag_add#1220.c
p621
I12
sV/home/anderson/Documents/siamese_dataset/linux_data/fix/CVE-2014-9584/linux-4.4.137#rock.c#small#parse_rock_ridge_inode_internal#307.c
p622
I53
sV/home/anderson/Documents/siamese_dataset/linux_data/fix/CVE-2010-2942/linux-4.9.30#act_mirred.c#small#tcf_mirred_dump#217.c
p623
I6
sV/home/anderson/Documents/siamese_dataset/linux_data/fix/CVE-2007-6417/linux-2.6.28.1#shmem.c#small#shmem_getpage#1178.c
p624
I170
sV/home/anderson/Documents/siamese_dataset/linux_data/vul/CVE-2012-1583/linux-2.6.19#xfrm6_tunnel.c#small#xfrm6_tunnel_rcv#258.c
p625
I7
sV/home/anderson/Documents/siamese_dataset/linux_data/vul/CVE-2010-4649/linux-2.6.32.5#uverbs_cmd.c#small#ib_uverbs_poll_cq#878.c
p626
I16
sV/home/anderson/Documents/siamese_dataset/linux_data/fix/CVE-2010-0437/linux-3.10.5#ip6_output.c#small#ip6_dst_lookup_tail#865.c
p627
I30
sV/home/anderson/Documents/siamese_dataset/linux_data/fix/CVE-2010-2521/linux-3.4.71#nfs4xdr.c#small#nfsd4_decode_compound#1556.c
p628
I51
sV/home/anderson/Documents/siamese_dataset/linux_data/fix/CVE-2006-6106/linux-4.4.100#capi.c#small#cmtp_recv_interopmsg#186.c
p629
I75
sV/home/anderson/Documents/siamese_dataset/linux_data/fix/CVE-2013-0290/linux-4.4.13#datagram.c#small#__skb_recv_datagram#194.c
p630
I24
sV/home/anderson/Documents/siamese_dataset/linux_data/fix/CVE-2012-4444/linux-3.2.64#reassembly.c#small#ip6_frag_queue#253.c
p631
I75
sV/home/anderson/Documents/siamese_dataset/linux_data/vul/CVE-2014-9584/linux-2.6.11.2#rock.c#small#parse_rock_ridge_inode_internal#291.c
p632
I51
sV/home/anderson/Documents/siamese_dataset/linux_data/vul/CVE-2010-4526/linux-2.6.31#input.c#small#sctp_icmp_proto_unreachable#424.c
p633
I7
sV/home/anderson/Documents/siamese_dataset/linux_data/fix/CVE-2011-1593/linux-3.16.62#pid.c#small#next_pidmap#213.c
p634
I6
sV/home/anderson/Documents/siamese_dataset/linux_data/fix/CVE-2010-0006/linux-4.18.9#exthdrs.c#small#ipv6_hop_jumbo#722.c
p635
I4
sV/home/anderson/Documents/siamese_dataset/linux_data/fix/CVE-2014-4655/linux-4.4.99#control.c#small#snd_ctl_elem_add#1199.c
p636
I34
sV/home/anderson/Documents/siamese_dataset/linux_data/fix/CVE-2014-5206/linux-5.1.4#namespace.c#small#do_remount#2383.c
p637
I29
sV/home/anderson/Documents/siamese_dataset/linux_data/vul/CVE-2012-1583/linux-4.19.6#xfrm6_tunnel.c#small#xfrm6_tunnel_rcv#232.c
p638
I8
sV/home/anderson/Documents/siamese_dataset/linux_data/vul/CVE-2010-4163/linux-2.6.27.21#blk-map.c#small#blk_rq_map_user_iov#177.c
p639
I1
sV/home/anderson/Documents/siamese_dataset/linux_data/fix/CVE-2012-4444/linux-2.6.36.4#reassembly.c#small#ip6_frag_queue#252.c
p640
I75
sV/home/anderson/Documents/siamese_dataset/linux_data/vul/CVE-2011-3359/linux-3.4.52#dma.c#small#dma_rx#1313.c
p641
I51
sV/home/anderson/Documents/siamese_dataset/linux_data/fix/CVE-2010-2066/linux-3.16.62#move_extent.c#small#mext_check_arguments#1100.c
p642
I17
sV/home/anderson/Documents/siamese_dataset/linux_data/fix/CVE-2017-18221/linux-5.0.15#mlock.c#small#__munlock_pagevec#290.c
p643
I5
sV/home/anderson/Documents/siamese_dataset/linux_data/fix/CVE-2019-18805/linux-5.9#tcp_input.c#small#tcp_ack_update_rtt#2946.c
p644
I26
sV/home/anderson/Documents/siamese_dataset/linux_data/fix/CVE-2009-3726/linux-3.2.64#nfs4proc.c#small#nfs4_proc_lock#4602.c
p645
I15
sV/home/anderson/Documents/siamese_dataset/linux_data/fix/CVE-2011-2213/linux-3.19.2#inet_diag.c#small#inet_diag_bc_audit#581.c
p646
I32
sV/home/anderson/Documents/siamese_dataset/linux_data/fix/CVE-2009-0746/linux-4.4.12#namei.c#small#make_indexed_dir#1930.c
p647
I36
sV/home/anderson/Documents/siamese_dataset/linux_data/fix/CVE-2006-6106/linux-3.4.52#capi.c#small#cmtp_recv_interopmsg#186.c
p648
I77
sV/home/anderson/Documents/siamese_dataset/linux_data/fix/CVE-2011-2906/linux-4.18.9#pmcraid.c#small#pmcraid_ioctl_passthrough#3594.c
p649
I73
sV/home/anderson/Documents/siamese_dataset/linux_data/fix/CVE-2013-1819/linux-4.18.9#xfs_buf.c#small#_xfs_buf_find#553.c
p650
I23
sV/home/anderson/Documents/siamese_dataset/linux_data/fix/CVE-2013-6380/linux-4.19.8#commctrl.c#small#aac_send_raw_srb#478.c
p651
I44
sV/home/anderson/Documents/siamese_dataset/linux_data/fix/CVE-2010-4081/linux-3.10.5#hdspm.c#small#snd_hdspm_hwdep_ioctl#5915.c
p652
I108
sV/home/anderson/Documents/siamese_dataset/linux_data/fix/CVE-2005-4635/linux-4.2.4#fib_frontend.c#small#nl_fib_input#1019.c
p653
I20
sV/home/anderson/Documents/siamese_dataset/linux_data/fix/CVE-2010-1162/linux-4.4.138#tty_io.c#small#release_one_tty#1633.c
p654
I19
sV/home/anderson/Documents/siamese_dataset/linux_data/vul/CVE-2010-3848/linux-2.6.13#af_econet.c#small#econet_sendmsg#252.c
p655
I16
sV/home/anderson/Documents/siamese_dataset/linux_data/fix/CVE-2009-1338/linux-2.6.9#signal.c#small#kill_something_info#1198.c
p656
I11
sV/home/anderson/Documents/siamese_dataset/linux_data/fix/CVE-2009-1360/linux-2.6.35.2#inet6_hashtables.c#small#__inet6_check_established#213.c
p657
I49
sV/home/anderson/Documents/siamese_dataset/linux_data/vul/CVE-2009-2698/linux-2.6.10#udp.c#small#udp_sendmsg#480.c
p658
I151
sV/home/anderson/Documents/siamese_dataset/linux_data/fix/CVE-2013-1928/linux-4.4.13#compat_ioctl.c#small#do_video_set_spu_palette#203.c
p659
I10
sV/home/anderson/Documents/siamese_dataset/linux_data/fix/CVE-2010-3849/linux-3.0.26#af_econet.c#small#econet_sendmsg#265.c
p660
I31
sV/home/anderson/Documents/siamese_dataset/linux_data/vul/CVE-2010-0006/linux-2.6.7#exthdrs.c#small#ipv6_hop_jumbo#432.c
p661
I29
sV/home/anderson/Documents/siamese_dataset/linux_data/fix/CVE-2010-4649/linux-5.0.15#uverbs_cmd.c#small#ib_uverbs_poll_cq#1145.c
p662
I22
sV/home/anderson/Documents/siamese_dataset/linux_data/fix/CVE-2017-18249/linux-5.0.15#node.c#small#add_free_nid#2073.c
p663
I24
sV/home/anderson/Documents/siamese_dataset/linux_data/vul/CVE-2020-27194/linux-5.8#verifier.c#small#scalar32_min_max_or#5487.c
p664
I7
sV/home/anderson/Documents/siamese_dataset/linux_data/fix/CVE-2013-6380/linux-4.9.23#commctrl.c#small#aac_send_raw_srb#475.c
p665
I44
sV/home/anderson/Documents/siamese_dataset/linux_data/fix/CVE-2020-27194/linux-5.14#verifier.c#small#scalar32_min_max_or#7182.c
p666
I7
sV/home/anderson/Documents/siamese_dataset/linux_data/vul/CVE-2009-1527/linux-2.6.27.21#ptrace.c#small#ptrace_attach#155.c
p667
I15
sV/home/anderson/Documents/siamese_dataset/linux_data/fix/CVE-2013-4588/linux-3.14.44#ip_vs_ctl.c#small#do_ip_vs_get_ctl#2627.c
p668
I6
sV/home/anderson/Documents/siamese_dataset/linux_data/vul/CVE-2009-1527/linux-2.6.30#ptrace.c#small#ptrace_attach#177.c
p669
I45
sV/home/anderson/Documents/siamese_dataset/linux_data/fix/CVE-2010-2803/linux-3.2.63#drm_drv.c#small#drm_ioctl#375.c
p670
I74
sV/home/anderson/Documents/siamese_dataset/linux_data/fix/CVE-2005-3858/linux-4.5.5#ip6_input.c#small#ip6_input_finish#202.c
p671
I51
sV/home/anderson/Documents/siamese_dataset/linux_data/fix/CVE-2010-4526/linux-3.10.90#input.c#small#sctp_icmp_proto_unreachable#453.c
p672
I7
sV/home/anderson/Documents/siamese_dataset/linux_data/fix/CVE-2011-1585/linux-2.6.36.4#connect.c#small#cifs_find_smb_ses#1640.c
p673
I7
sV/home/anderson/Documents/siamese_dataset/linux_data/vul/CVE-2018-6927/linux-2.6.13#futex.c#small#futex_requeue#333.c
p674
I55
sV/home/anderson/Documents/siamese_dataset/linux_data/fix/CVE-2010-4081/linux-3.0.38#hdspm.c#small#snd_hdspm_hwdep_ioctl#5979.c
p675
I108
sV/home/anderson/Documents/siamese_dataset/linux_data/vul/CVE-2010-2954/linux-2.6.11.3#af_irda.c#small#irda_open_tsap#468.c
p676
I1
sV/home/anderson/Documents/siamese_dataset/linux_data/vul/CVE-2009-1360/linux-2.6.11.2#inet6_hashtables.c#small#__inet6_check_established#213.c
p677
I49
sV/home/anderson/Documents/siamese_dataset/linux_data/vul/CVE-2013-6432/linux-3.3#ping.c#small#ping_recvmsg#623.c
p678
I38
sV/home/anderson/Documents/siamese_dataset/linux_data/fix/CVE-2009-3228/linux-5.0.15#sch_api.c#small#tc_fill_tclass#1779.c
p679
I17
sV/home/anderson/Documents/siamese_dataset/linux_data/fix/CVE-2007-1861/linux-3.4.83#fib_frontend.c#small#nl_fib_lookup#871.c
p680
I22
sV/home/anderson/Documents/siamese_dataset/linux_data/vul/CVE-2012-4444/linux-2.6.7#reassembly.c#small#ip6_frag_queue#415.c
p681
I62
sV/home/anderson/Documents/siamese_dataset/linux_data/vul/CVE-2009-4307/linux-2.6.28.8#super.c#small#ext4_fill_flex_info#1440.c
p682
I17
sV/home/anderson/Documents/siamese_dataset/linux_data/vul/CVE-2011-1927/linux-2.6.38.1#ip_fragment.c#small#ip_expire#206.c
p683
I27
sV/home/anderson/Documents/siamese_dataset/linux_data/vul/CVE-2006-5331/linux-2.6.11.7#traps.c#small#altivec_unavailable_exception#438.c
p684
I1
sV/home/anderson/Documents/siamese_dataset/linux_data/vul/CVE-2022-25258/linux-5.8#composite.c#small#composite_setup#1627.c
p685
I298
sV/home/anderson/Documents/siamese_dataset/linux_data/fix/CVE-2010-2066/linux-4.9.182#move_extent.c#small#mext_check_arguments#456.c
p686
I21
sV/home/anderson/Documents/siamese_dataset/linux_data/fix/CVE-2009-1630/linux-3.16.62#dir.c#small#nfs_permission#2308.c
p687
I11
sV/home/anderson/Documents/siamese_dataset/linux_data/vul/CVE-2014-1690/linux-3.0.26#nf_nat_irc.c#small#help#30.c
p688
I37
sV/home/anderson/Documents/siamese_dataset/linux_data/vul/CVE-2005-3858/linux-2.6.7#ip6_input.c#small#ip6_input_finish#134.c
p689
I65
sV/home/anderson/Documents/siamese_dataset/linux_data/vul/CVE-2018-6927/linux-2.6.10#futex.c#small#futex_requeue#322.c
p690
I51
sV/home/anderson/Documents/siamese_dataset/linux_data/fix/CVE-2014-2523/linux-4.18.9#nf_conntrack_proto_dccp.c#small#dccp_error#562.c
p691
I10
sV/home/anderson/Documents/siamese_dataset/linux_data/vul/CVE-2011-0711/linux-2.6.10#xfs_fsops.c#small#xfs_fs_geometry#69.c
p692
I20
sV/home/anderson/Documents/siamese_dataset/linux_data/fix/CVE-2012-1583/linux-2.6.22#xfrm6_tunnel.c#small#xfrm6_tunnel_rcv#258.c
p693
I7
sV/home/anderson/Documents/siamese_dataset/linux_data/vul/CVE-2010-4081/linux-2.6.22#hdspm.c#small#snd_hdspm_hwdep_ioctl#4107.c
p694
I6
sV/home/anderson/Documents/siamese_dataset/linux_data/vul/CVE-2011-1771/linux-2.6.27.1#file.c#small#cifs_close#476.c
p695
I55
sV/home/anderson/Documents/siamese_dataset/linux_data/vul/CVE-2011-1771/linux-2.6.27.43#file.c#small#cifs_close#403.c
p696
I31
sV/home/anderson/Documents/siamese_dataset/linux_data/vul/CVE-2009-1360/linux-2.6.16#inet6_hashtables.c#small#__inet6_check_established#85.c
p697
I56
sV/home/anderson/Documents/siamese_dataset/linux_data/vul/CVE-2013-4588/linux-2.6.10#ip_vs_ctl.c#small#do_ip_vs_get_ctl#2188.c
p698
I16
sV/home/anderson/Documents/siamese_dataset/linux_data/fix/CVE-2009-1360/linux-3.10.5#inet6_hashtables.c#small#__inet6_check_established#233.c
p699
I54
sV/home/anderson/Documents/siamese_dataset/linux_data/fix/CVE-2013-7348/linux-5.1.14#aio.c#small#ioctx_alloc#703.c
p700
I40
sV/home/anderson/Documents/siamese_dataset/linux_data/fix/CVE-2012-6547/linux-4.18.9#tun.c#small#__tun_chr_ioctl#2864.c
p701
I23
sV/home/anderson/Documents/siamese_dataset/linux_data/vul/CVE-2007-1861/linux-2.6.11.2#fib_frontend.c#small#nl_fib_lookup#848.c
p702
I22
sV/home/anderson/Documents/siamese_dataset/linux_data/fix/CVE-2013-1928/linux-4.9.115#compat_ioctl.c#small#do_video_set_spu_palette#225.c
p703
I10
sV/home/anderson/Documents/siamese_dataset/linux_data/fix/CVE-2020-27194/linux-5.12.rc3#verifier.c#small#scalar32_min_max_or#6316.c
p704
I4
sV/home/anderson/Documents/siamese_dataset/linux_data/fix/CVE-2010-4081/linux-3.2.64#hdspm.c#small#snd_hdspm_hwdep_ioctl#6092.c
p705
I108
sV/home/anderson/Documents/siamese_dataset/linux_data/vul/CVE-2018-6554/linux-2.6.11.2#af_irda.c#small#irda_bind#779.c
p706
I4
sV/home/anderson/Documents/siamese_dataset/linux_data/fix/CVE-2009-2698/linux-2.6.22#udp.c#small#udp_sendmsg#510.c
p707
I159
sV/home/anderson/Documents/siamese_dataset/linux_data/vul/CVE-2011-1598/linux-2.6.27.42#bcm.c#small#bcm_release#1376.c
p708
I4
sV/home/anderson/Documents/siamese_dataset/linux_data/vul/CVE-2009-1527/linux-2.6.19#ptrace.c#small#ptrace_attach#160.c
p709
I16
sV/home/anderson/Documents/siamese_dataset/linux_data/fix/CVE-2011-1079/linux-4.4.99#sock.c#small#bnep_sock_ioctl#52.c
p710
I30
sV/home/anderson/Documents/siamese_dataset/linux_data/fix/CVE-2013-4588/linux-4.19.59#ip_vs_ctl.c#small#do_ip_vs_get_ctl#2664.c
p711
I6
sV/home/anderson/Documents/siamese_dataset/linux_data/vul/CVE-2009-3228/linux-2.6.29.6#sch_api.c#small#tc_fill_tclass#1435.c
p712
I14
sV/home/anderson/Documents/siamese_dataset/linux_data/vul/CVE-2010-2521/linux-2.6.14#nfs4xdr.c#small#nfsd4_decode_compound#971.c
p713
I33
sV/home/anderson/Documents/siamese_dataset/linux_data/fix/CVE-2011-1927/linux-3.2.63#ip_fragment.c#small#ip_expire#226.c
p714
I36
sV/home/anderson/Documents/siamese_dataset/linux_data/vul/CVE-2018-6554/linux-2.3.9#af_irda.c#small#irda_bind#452.c
p715
I4
sV/home/anderson/Documents/siamese_dataset/linux_data/vul/CVE-2010-3849/linux-2.6.33#af_econet.c#small#econet_sendmsg#263.c
p716
I31
sV/home/anderson/Documents/siamese_dataset/linux_data/vul/CVE-2009-2846/linux-2.6.27.23#eisa_eeprom.c#small#eisa_eeprom_read#51.c
p717
I8
sV/home/anderson/Documents/siamese_dataset/linux_data/fix/CVE-2009-0778/linux-3.12.1#icmp.c#small#icmp_send#481.c
p718
I51
sV/home/anderson/Documents/siamese_dataset/linux_data/vul/CVE-2011-2213/linux-2.6.14#inet_diag.c#small#inet_diag_bc_audit#377.c
p719
I17
sV/home/anderson/Documents/siamese_dataset/linux_data/vul/CVE-2009-2406/linux-2.6.11.2#keystore.c#small#parse_tag_11_packet#1443.c
p720
I3
sV/home/anderson/Documents/siamese_dataset/linux_data/fix/CVE-2011-2213/linux-4.18.9#inet_diag.c#small#inet_diag_bc_audit#783.c
p721
I52
sV/home/anderson/Documents/siamese_dataset/linux_data/vul/CVE-2009-1338/linux-2.6.27.19#signal.c#small#kill_something_info#1124.c
p722
I21
sV/home/anderson/Documents/siamese_dataset/linux_data/fix/CVE-2009-1527/linux-4.5.1#ptrace.c#small#ptrace_attach#296.c
p723
I69
sV/home/anderson/Documents/siamese_dataset/linux_data/fix/CVE-2014-1446/linux-4.8.11#yam.c#small#yam_ioctl#952.c
p724
I105
sV/home/anderson/Documents/siamese_dataset/linux_data/vul/CVE-2018-6927/linux-3.10.90#futex.c#small#futex_requeue#1366.c
p725
I106
sV/home/anderson/Documents/siamese_dataset/linux_data/fix/CVE-2009-2698/linux-4.2.8#udp.c#small#udp_sendmsg#876.c
p726
I194
sV/home/anderson/Documents/siamese_dataset/linux_data/fix/CVE-2014-2851/linux-4.4.137#ping.c#small#ping_init_sock#255.c
p727
I5
sV/home/anderson/Documents/siamese_dataset/linux_data/fix/CVE-2014-4654/linux-4.18.9#control.c#small#snd_ctl_elem_add#1234.c
p728
I41
sV/home/anderson/Documents/siamese_dataset/linux_data/fix/CVE-2009-1338/linux-2.6.32.16#signal.c#small#kill_something_info#1191.c
p729
I21
sV/home/anderson/Documents/siamese_dataset/linux_data/vul/CVE-2014-9584/linux-3.4.8#rock.c#small#parse_rock_ridge_inode_internal#291.c
p730
I51
sV/home/anderson/Documents/siamese_dataset/linux_data/vul/CVE-2010-2521/linux-2.6.22#nfs4xdr.c#small#nfsd4_decode_compound#974.c
p731
I45
sV/home/anderson/Documents/siamese_dataset/linux_data/vul/CVE-2011-1771/linux-2.6.29.2#file.c#small#cifs_close#476.c
p732
I59
sV/home/anderson/Documents/siamese_dataset/linux_data/vul/CVE-2018-6554/linux-2.6.16#af_irda.c#small#irda_bind#780.c
p733
I4
sV/home/anderson/Documents/siamese_dataset/linux_data/fix/CVE-2009-1527/linux-3.3#ptrace.c#small#ptrace_attach#233.c
p734
I59
sV/home/anderson/Documents/siamese_dataset/linux_data/vul/CVE-2008-3534/linux-2.4.9#shmem.c#small#shmem_delete_inode#210.c
p735
I13
sV/home/anderson/Documents/siamese_dataset/linux_data/fix/CVE-2010-4649/linux-4.18.9#uverbs_cmd.c#small#ib_uverbs_poll_cq#1233.c
p736
I24
sV/home/anderson/Documents/siamese_dataset/linux_data/vul/CVE-2011-0711/linux-2.6.27.23#xfs_fsops.c#small#xfs_fs_geometry#53.c
p737
I20
sV/home/anderson/Documents/siamese_dataset/linux_data/fix/CVE-2009-2698/linux-2.6.36.4#udp.c#small#udp_sendmsg#772.c
p738
I167
sV/home/anderson/Documents/siamese_dataset/linux_data/vul/CVE-2011-2905/linux-3.10.90#config.c#small#perf_config#404.c
p739
I35
sV/home/anderson/Documents/siamese_dataset/linux_data/fix/CVE-2009-1192/linux-2.6.30.4#generic.c#small#agp_generic_alloc_pages#1223.c
p740
I7
sV/home/anderson/Documents/siamese_dataset/linux_data/vul/CVE-2009-3722/linux-2.6.31#vmx.c#small#handle_dr#2838.c
p741
I7
sV/home/anderson/Documents/siamese_dataset/linux_data/vul/CVE-2006-4997/linux-2.6.7#clip.c#small#clip_mkip#481.c
p742
I28
sV/home/anderson/Documents/siamese_dataset/linux_data/fix/CVE-2009-0746/linux-3.4.83#namei.c#small#make_indexed_dir#1337.c
p743
I32
sV/home/anderson/Documents/siamese_dataset/linux_data/fix/CVE-2009-4308/linux-3.10.90#super.c#small#ext4_decode_error#490.c
p744
I14
sV/home/anderson/Documents/siamese_dataset/linux_data/fix/CVE-2019-19602/linux-5.10#internal.h#small#fpregs_state_valid#481.c
p745
I3
sV/home/anderson/Documents/siamese_dataset/linux_data/fix/CVE-2011-1585/linux-2.6.39.2#connect.c#small#cifs_find_smb_ses#1813.c
p746
I7
sV/home/anderson/Documents/siamese_dataset/linux_data/vul/CVE-2020-25643/linux-5.6#hdlc_ppp.c#small#ppp_cp_parse_cr#372.c
p747
I15
sV/home/anderson/Documents/siamese_dataset/linux_data/vul/CVE-2009-0778/linux-2.6.13#icmp.c#small#icmp_send#433.c
p748
I45
sV/home/anderson/Documents/siamese_dataset/linux_data/vul/CVE-2010-0006/linux-2.2.9#exthdrs.c#small#ipv6_hop_jumbo#450.c
p749
I25
sV/home/anderson/Documents/siamese_dataset/linux_data/fix/CVE-2010-4081/linux-5.0.15#hdspm.c#small#snd_hdspm_hwdep_ioctl#6163.c
p750
I108
sV/home/anderson/Documents/siamese_dataset/linux_data/fix/CVE-2010-4073/linux-3.14.44#compat.c#small#compat_sys_shmctl#671.c
p751
I9
sV/home/anderson/Documents/siamese_dataset/linux_data/fix/CVE-2009-3638/linux-5.1.7#x86.c#small#kvm_arch_dev_ioctl#3122.c
p752
I34
sV/home/anderson/Documents/siamese_dataset/linux_data/fix/CVE-2014-1690/linux-4.19.7#nf_nat_irc.c#small#help#31.c
p753
I41
sV/home/anderson/Documents/siamese_dataset/linux_data/fix/CVE-2010-0437/linux-3.19.2#ip6_output.c#small#ip6_dst_lookup_tail#874.c
p754
I31
sV/home/anderson/Documents/siamese_dataset/linux_data/fix/CVE-2010-2226/linux-3.10.5#xfs_dfrag.c#small#xfs_swapext#46.c
p755
I16
sV/home/anderson/Documents/siamese_dataset/linux_data/vul/CVE-2011-3637/linux-2.6.16#task_mmu.c#small#m_stop#353.c
p756
I7
sV/home/anderson/Documents/siamese_dataset/linux_data/fix/CVE-2010-4081/linux-3.12.1#hdspm.c#small#snd_hdspm_hwdep_ioctl#6233.c
p757
I108
sV/home/anderson/Documents/siamese_dataset/linux_data/vul/CVE-2009-0778/linux-2.6.11.2#icmp.c#small#icmp_send#417.c
p758
I111
sV/home/anderson/Documents/siamese_dataset/linux_data/fix/CVE-2010-3849/linux-3.2.63#af_econet.c#small#econet_sendmsg#263.c
p759
I31
sV/home/anderson/Documents/siamese_dataset/linux_data/vul/CVE-2009-3228/linux-2.6.10#sch_api.c#small#tc_fill_tclass#969.c
p760
I15
sV/home/anderson/Documents/siamese_dataset/linux_data/fix/CVE-2020-25643/linux-5.17.rc6#hdlc_ppp.c#small#ppp_cp_parse_cr#369.c
p761
I16
sV/home/anderson/Documents/siamese_dataset/linux_data/vul/CVE-2013-7348/linux-3.12.1#aio.c#small#ioctx_alloc#557.c
p762
I61
sV/home/anderson/Documents/siamese_dataset/linux_data/vul/CVE-2011-1044/linux-2.6.16#uverbs_cmd.c#small#ib_uverbs_poll_cq#678.c
p763
I16
sV/home/anderson/Documents/siamese_dataset/linux_data/fix/CVE-2011-1078/linux-3.14.44#sco.c#small#sco_sock_getsockopt_old#788.c
p764
I42
sV/home/anderson/Documents/siamese_dataset/linux_data/vul/CVE-2018-6554/linux-2.4.8#af_irda.c#small#irda_bind#773.c
p765
I4
sV/home/anderson/Documents/siamese_dataset/linux_data/fix/CVE-2011-1585/linux-2.6.38.1#connect.c#small#cifs_find_smb_ses#1797.c
p766
I7
sV/home/anderson/Documents/siamese_dataset/linux_data/vul/CVE-2009-3726/linux-2.6.11.10#nfs4proc.c#small#nfs4_proc_lock#2540.c
p767
I15
sV/home/anderson/Documents/siamese_dataset/linux_data/vul/CVE-2007-6417/linux-2.6.16#shmem.c#small#shmem_getpage#1001.c
p768
I160
sV/home/anderson/Documents/siamese_dataset/linux_data/fix/CVE-2012-3511/linux-4.19.8#madvise.c#small#madvise_remove#574.c
p769
I15
sV/home/anderson/Documents/siamese_dataset/linux_data/fix/CVE-2012-4444/linux-4.9.116#reassembly.c#small#ip6_frag_queue#209.c
p770
I78
sV/home/anderson/Documents/siamese_dataset/linux_data/vul/CVE-2009-1630/linux-2.6.8.1#dir.c#small#nfs_permission#1501.c
p771
I18
sV/home/anderson/Documents/siamese_dataset/linux_data/vul/CVE-2009-0778/linux-2.6.20#icmp.c#small#icmp_send#433.c
p772
I45
sV/home/anderson/Documents/siamese_dataset/linux_data/fix/CVE-2010-3850/linux-3.0.21#af_econet.c#small#ec_dev_ioctl#639.c
p773
I23
sV/home/anderson/Documents/siamese_dataset/linux_data/fix/CVE-2010-4165/linux-3.10.90#tcp.c#small#do_tcp_setsockopt#2386.c
p774
I41
sV/home/anderson/Documents/siamese_dataset/linux_data/vul/CVE-2010-4256/linux-2.6.35.2#pipe.c#small#pipe_fcntl#1200.c
p775
I6
sV/home/anderson/Documents/siamese_dataset/linux_data/fix/CVE-2009-1961/linux-3.4.8#file.c#small#ocfs2_file_splice_write#2461.c
p776
I24
sV/home/anderson/Documents/siamese_dataset/linux_data/fix/CVE-2008-2136/linux-2.6.29.2#sit.c#small#ipip6_rcv#473.c
p777
I6
sV/home/anderson/Documents/siamese_dataset/linux_data/fix/CVE-2009-2698/linux-4.18.9#udp.c#small#udp_sendmsg#898.c
p778
I229
sV/home/anderson/Documents/siamese_dataset/linux_data/fix/CVE-2011-1598/linux-5.0.15#bcm.c#small#bcm_release#1510.c
p779
I8
sV/home/anderson/Documents/siamese_dataset/linux_data/fix/CVE-2012-6547/linux-4.4.12#tun.c#small#__tun_chr_ioctl#1876.c
p780
I20
sV/home/anderson/Documents/siamese_dataset/linux_data/vul/CVE-2013-0349/linux-3.3#core.c#small#hidp_setup_hid#920.c
p781
I33
sV/home/anderson/Documents/siamese_dataset/linux_data/vul/CVE-2010-3432/linux-2.6.22#output.c#small#sctp_packet_config#71.c
p782
I14
sV/home/anderson/Documents/siamese_dataset/linux_data/vul/CVE-2010-4565/linux-2.6.32.4#bcm.c#small#bcm_connect#1474.c
p783
I1
sV/home/anderson/Documents/siamese_dataset/linux_data/fix/CVE-2010-4081/linux-4.4.137#hdspm.c#small#snd_hdspm_hwdep_ioctl#6166.c
p784
I108
sV/home/anderson/Documents/siamese_dataset/linux_data/vul/CVE-2014-2889/linux-3.0.21#bpf_jit_comp.c#small#bpf_jit_compile#121.c
p785
I339
sV/home/anderson/Documents/siamese_dataset/linux_data/fix/CVE-2008-2136/linux-2.6.32.15#sit.c#small#ipip6_rcv#489.c
p786
I6
sV/home/anderson/Documents/siamese_dataset/linux_data/vul/CVE-2013-1819/linux-3.0.38#xfs_buf.c#small#_xfs_buf_find#424.c
p787
I19
sV/home/anderson/Documents/siamese_dataset/linux_data/fix/CVE-2005-0180/linux-4.19.6#scsi_ioctl.c#small#sg_scsi_ioctl#418.c
p788
I41
sV/home/anderson/Documents/siamese_dataset/linux_data/vul/CVE-2014-9584/linux-2.6.9#rock.c#small#parse_rock_ridge_inode_internal#163.c
p789
I44
sV/home/anderson/Documents/siamese_dataset/linux_data/vul/CVE-2011-3359/linux-2.6.27.23#dma.c#small#dma_rx#1474.c
p790
I37
sV/home/anderson/Documents/siamese_dataset/linux_data/fix/CVE-2012-6547/linux-3.4.8#tun.c#small#__tun_chr_ioctl#1246.c
p791
I17
sV/home/anderson/Documents/siamese_dataset/linux_data/fix/CVE-2010-2942/linux-4.5.1#act_mirred.c#small#tcf_mirred_dump#196.c
p792
I5
sV/home/anderson/Documents/siamese_dataset/linux_data/vul/CVE-2009-0778/linux-2.6.22#icmp.c#small#icmp_send#433.c
p793
I46
sV/home/anderson/Documents/siamese_dataset/linux_data/vul/CVE-2014-1690/linux-3.12.1#nf_nat_irc.c#small#help#29.c
p794
I34
sV/home/anderson/Documents/siamese_dataset/linux_data/vul/CVE-2010-2954/linux-2.6.13#af_irda.c#small#irda_bind#779.c
p795
I33
sV/home/anderson/Documents/siamese_dataset/linux_data/fix/CVE-2010-4163/linux-4.4.10#blk-map.c#small#blk_rq_map_user_iov#81.c
p796
I16
sV/home/anderson/Documents/siamese_dataset/linux_data/fix/CVE-2013-4588/linux-5.1.7#ip_vs_ctl.c#small#do_ip_vs_get_ctl#2664.c
p797
I6
sV/home/anderson/Documents/siamese_dataset/linux_data/vul/CVE-2008-3534/linux-2.6.11.3#shmem.c#small#shmem_delete_inode#665.c
p798
I22
sV/home/anderson/Documents/siamese_dataset/linux_data/fix/CVE-2010-0437/linux-4.19.57#ip6_output.c#small#ip6_dst_lookup_tail#927.c
p799
I51
sV/home/anderson/Documents/siamese_dataset/linux_data/fix/CVE-2018-6554/linux-4.18.9#af_irda.c#small#irda_bind#765.c
p800
I4
sV/home/anderson/Documents/siamese_dataset/linux_data/fix/CVE-2009-2698/linux-4.20.9#udp.c#small#udp_sendmsg#911.c
p801
I220
sV/home/anderson/Documents/siamese_dataset/linux_data/vul/CVE-2010-2803/linux-2.6.16#drm_drv.c#small#drm_ioctl#464.c
p802
I37
sV/home/anderson/Documents/siamese_dataset/linux_data/vul/CVE-2018-6554/linux-2.5.16#af_irda.c#small#irda_bind#792.c
p803
I4
sV/home/anderson/Documents/siamese_dataset/linux_data/vul/CVE-2019-18805/linux-5.0.rc1#tcp_input.c#small#tcp_ack_update_rtt#2895.c
p804
I23
sV/home/anderson/Documents/siamese_dataset/linux_data/fix/CVE-2011-4086/linux-4.6.5#transaction.c#small#journal_unmap_buffer#2082.c
p805
I88
sV/home/anderson/Documents/siamese_dataset/linux_data/fix/CVE-2013-0290/linux-4.19.8#datagram.c#small#__skb_recv_datagram#292.c
p806
I12
sV/home/anderson/Documents/siamese_dataset/linux_data/fix/CVE-2009-2698/linux-4.4.142#udp.c#small#udp_sendmsg#879.c
p807
I206
sV/home/anderson/Documents/siamese_dataset/linux_data/fix/CVE-2009-0746/linux-2.6.29#namei.c#small#make_indexed_dir#1351.c
p808
I32
sV/home/anderson/Documents/siamese_dataset/linux_data/fix/CVE-2009-2847/linux-3.14.44#signal.c#small#do_sigaltstack#3136.c
p809
I17
sV/home/anderson/Documents/siamese_dataset/linux_data/fix/CVE-2009-1360/linux-3.18.21#inet6_hashtables.c#small#__inet6_check_established#242.c
p810
I44
sV/home/anderson/Documents/siamese_dataset/linux_data/vul/CVE-2009-1338/linux-2.6.22#signal.c#small#kill_something_info#1109.c
p811
I13
sV/home/anderson/Documents/siamese_dataset/linux_data/vul/CVE-2014-0131/linux-3.4.8#skbuff.c#small#skb_segment#2676.c
p812
I6
sV/home/anderson/Documents/siamese_dataset/linux_data/fix/CVE-2012-0044/linux-3.12.1#drm_crtc.c#small#drm_mode_dirtyfb_ioctl#1835.c
p813
I41
sV/home/anderson/Documents/siamese_dataset/linux_data/fix/CVE-2012-4444/linux-3.4.8#reassembly.c#small#ip6_frag_queue#249.c
p814
I75
sV/home/anderson/Documents/siamese_dataset/linux_data/fix/CVE-2010-0006/linux-3.4.8#exthdrs.c#small#ipv6_hop_jumbo#582.c
p815
I4
sV/home/anderson/Documents/siamese_dataset/linux_data/vul/CVE-2014-3610/linux-3.4.8#svm.c#small#wrmsr_interception#3209.c
p816
I9
sV/home/anderson/Documents/siamese_dataset/linux_data/vul/CVE-2014-2309/linux-3.12.1#route.c#small#ip6_route_add#1457.c
p817
I45
sV/home/anderson/Documents/siamese_dataset/linux_data/vul/CVE-2013-7269/linux-3.4.8#af_netrom.c#small#nr_recvmsg#1138.c
p818
I38
sV/home/anderson/Documents/siamese_dataset/linux_data/vul/CVE-2011-2906/linux-2.6.11.2#pmcraid.c#small#pmcraid_ioctl_passthrough#3733.c
p819
I76
sV/home/anderson/Documents/siamese_dataset/linux_data/fix/CVE-2011-1044/linux-5.0.10#uverbs_cmd.c#small#ib_uverbs_poll_cq#1145.c
p820
I22
sV/home/anderson/Documents/siamese_dataset/linux_data/vul/CVE-2011-4086/linux-3.4.36#transaction.c#small#journal_unmap_buffer#1848.c
p821
I84
sV/home/anderson/Documents/siamese_dataset/linux_data/fix/CVE-2010-0006/linux-3.18.21#exthdrs.c#small#ipv6_hop_jumbo#562.c
p822
I4
sV/home/anderson/Documents/siamese_dataset/linux_data/vul/CVE-2010-3849/linux-2.6.22#af_econet.c#small#econet_sendmsg#263.c
p823
I31
sV/home/anderson/Documents/siamese_dataset/linux_data/fix/CVE-2009-3726/linux-4.19.6#nfs4proc.c#small#nfs4_proc_lock#6937.c
p824
I11
sV/home/anderson/Documents/siamese_dataset/linux_data/fix/CVE-2009-0746/linux-2.6.36.4#namei.c#small#make_indexed_dir#1345.c
p825
I32
sV/home/anderson/Documents/siamese_dataset/linux_data/fix/CVE-2009-2698/linux-2.6.7#udp.c#small#udp_sendmsg#480.c
p826
I151
sV/home/anderson/Documents/siamese_dataset/linux_data/vul/CVE-2009-0746/linux-2.6.28.4#namei.c#small#make_indexed_dir#1340.c
p827
I32
sV/home/anderson/Documents/siamese_dataset/linux_data/fix/CVE-2005-0180/linux-4.7.5#scsi_ioctl.c#small#sg_scsi_ioctl#416.c
p828
I40
sV/home/anderson/Documents/siamese_dataset/linux_data/fix/CVE-2009-2698/linux-3.4.8#udp.c#small#udp_sendmsg#791.c
p829
I192
sV/home/anderson/Documents/siamese_dataset/linux_data/fix/CVE-2009-0778/linux-3.18.119#icmp.c#small#icmp_send#544.c
p830
I52
sV/home/anderson/Documents/siamese_dataset/linux_data/fix/CVE-2010-4256/linux-4.19.7#pipe.c#small#pipe_fcntl#1122.c
p831
I6
sV/home/anderson/Documents/siamese_dataset/linux_data/vul/CVE-2010-2942/linux-2.6.27.34#act_mirred.c#small#tcf_mirred_dump#204.c
p832
I5
sV/home/anderson/Documents/siamese_dataset/linux_data/fix/CVE-2010-4165/linux-3.10.5#tcp.c#small#do_tcp_setsockopt#2364.c
p833
I41
sV/home/anderson/Documents/siamese_dataset/linux_data/fix/CVE-2009-0746/linux-3.18.21#namei.c#small#make_indexed_dir#1732.c
p834
I38
sV/home/anderson/Documents/siamese_dataset/linux_data/fix/CVE-2011-3359/linux-2.6.35.2#dma.c#small#dma_rx#1530.c
p835
I52
sV/home/anderson/Documents/siamese_dataset/linux_data/vul/CVE-2019-19602/linux-5.2#internal.h#small#fpregs_state_valid#510.c
p836
I3
sV/home/anderson/Documents/siamese_dataset/linux_data/vul/CVE-2010-3848/linux-2.6.8.1#af_econet.c#small#econet_sendmsg#251.c
p837
I16
sV/home/anderson/Documents/siamese_dataset/linux_data/fix/CVE-2012-0044/linux-3.4.8#drm_crtc.c#small#drm_mode_dirtyfb_ioctl#2358.c
p838
I40
sV/home/anderson/Documents/siamese_dataset/linux_data/fix/CVE-2010-3848/linux-3.0.26#af_econet.c#small#econet_sendmsg#265.c
p839
I16
sV/home/anderson/Documents/siamese_dataset/linux_data/vul/CVE-2010-2226/linux-2.6.29.6#xfs_dfrag.c#small#xfs_swapext#50.c
p840
I15
sV/home/anderson/Documents/siamese_dataset/linux_data/fix/CVE-2020-27194/linux-5.10#verifier.c#small#scalar32_min_max_or#5942.c
p841
I7
sV/home/anderson/Documents/siamese_dataset/linux_data/fix/CVE-2010-4165/linux-5.1.14#tcp.c#small#do_tcp_setsockopt#2763.c
p842
I71
sV/home/anderson/Documents/siamese_dataset/linux_data/vul/CVE-2014-2523/linux-3.10.5#nf_conntrack_proto_dccp.c#small#dccp_error#570.c
p843
I11
sV/home/anderson/Documents/siamese_dataset/linux_data/fix/CVE-2009-0746/linux-4.4.100#namei.c#small#make_indexed_dir#1947.c
p844
I36
sV/home/anderson/Documents/siamese_dataset/linux_data/fix/CVE-2012-0044/linux-3.2.64#drm_crtc.c#small#drm_mode_dirtyfb_ioctl#1825.c
p845
I40
sV/home/anderson/Documents/siamese_dataset/linux_data/vul/CVE-2009-3228/linux-2.4.36#sch_api.c#small#tc_fill_tclass#957.c
p846
I13
sV/home/anderson/Documents/siamese_dataset/linux_data/vul/CVE-2014-2851/linux-3.12.1#ping.c#small#ping_init_sock#201.c
p847
I6
sV/home/anderson/Documents/siamese_dataset/linux_data/vul/CVE-2014-4027/linux-3.12.1#target_core_rd.c#small#rd_build_device_space#128.c
p848
I21
sV/home/anderson/Documents/siamese_dataset/linux_data/vul/CVE-2017-18249/linux-4.7.5#node.c#small#add_free_nid#1693.c
p849
I13
sV/home/anderson/Documents/siamese_dataset/linux_data/fix/CVE-2010-0437/linux-4.2.8#ip6_output.c#small#ip6_dst_lookup_tail#884.c
p850
I42
sV/home/anderson/Documents/siamese_dataset/linux_data/fix/CVE-2010-3442/linux-3.10.5#control.c#small#snd_ctl_new#195.c
p851
I10
sV/home/anderson/Documents/siamese_dataset/linux_data/fix/CVE-2009-1630/linux-2.6.27.19#dir.c#small#nfs_permission#1910.c
p852
I8
sV/home/anderson/Documents/siamese_dataset/linux_data/fix/CVE-2005-4635/linux-5.1.7#fib_frontend.c#small#nl_fib_input#1264.c
p853
I21
sV/home/anderson/Documents/siamese_dataset/linux_data/fix/CVE-2014-1446/linux-3.4.8#yam.c#small#yam_ioctl#949.c
p854
I106
sV/home/anderson/Documents/siamese_dataset/linux_data/vul/CVE-2014-9584/linux-2.6.11.10#rock.c#small#parse_rock_ridge_inode_internal#170.c
p855
I44
sV/home/anderson/Documents/siamese_dataset/linux_data/vul/CVE-2009-3638/linux-2.6.30.8#x86.c#small#kvm_arch_dev_ioctl#1100.c
p856
I34
sV/home/anderson/Documents/siamese_dataset/linux_data/fix/CVE-2009-4307/linux-3.4.52#super.c#small#ext4_fill_flex_info#1878.c
p857
I12
sV/home/anderson/Documents/siamese_dataset/linux_data/vul/CVE-2014-2309/linux-3.12.1#route.c#small#ip6_route_add#1211.c
p858
I36
sV/home/anderson/Documents/siamese_dataset/linux_data/vul/CVE-2018-6927/linux-3.0.55#futex.c#small#futex_requeue#1260.c
p859
I102
sV/home/anderson/Documents/siamese_dataset/linux_data/fix/CVE-2012-1583/linux-2.6.11.2#xfrm6_tunnel.c#small#xfrm6_tunnel_rcv#237.c
p860
I8
sV/home/anderson/Documents/siamese_dataset/linux_data/fix/CVE-2011-1079/linux-3.4.36#sock.c#small#bnep_sock_ioctl#62.c
p861
I29
sV/home/anderson/Documents/siamese_dataset/linux_data/fix/CVE-2013-4588/linux-4.2.4#ip_vs_ctl.c#small#do_ip_vs_get_ctl#2613.c
p862
I6
sV/home/anderson/Documents/siamese_dataset/linux_data/fix/CVE-2009-4307/linux-3.10.5#super.c#small#ext4_fill_flex_info#1900.c
p863
I10
sV/home/anderson/Documents/siamese_dataset/linux_data/vul/CVE-2006-6106/linux-2.6.11.2#capi.c#small#cmtp_recv_interopmsg#184.c
p864
I77
sV/home/anderson/Documents/siamese_dataset/linux_data/fix/CVE-2010-2240/linux-3.14.44#memory.c#small#do_anonymous_page#3227.c
p865
I11
sV/home/anderson/Documents/siamese_dataset/linux_data/vul/CVE-2009-1527/linux-2.6.11.2#ptrace.c#small#ptrace_attach#166.c
p866
I41
sV/home/anderson/Documents/siamese_dataset/linux_data/fix/CVE-2009-2698/linux-2.6.29.1#udp.c#small#udp_sendmsg#571.c
p867
I162
sV/home/anderson/Documents/siamese_dataset/linux_data/vul/CVE-2019-18805/linux-4.16.rc3#tcp_input.c#small#tcp_ack_update_rtt#2877.c
p868
I23
sV/home/anderson/Documents/siamese_dataset/linux_data/vul/CVE-2020-25643/linux-5.9.rc6#hdlc_ppp.c#small#ppp_cp_parse_cr#372.c
p869
I15
sV/home/anderson/Documents/siamese_dataset/linux_data/vul/CVE-2010-4526/linux-2.6.16#input.c#small#sctp_icmp_proto_unreachable#396.c
p870
I7
sV/home/anderson/Documents/siamese_dataset/linux_data/vul/CVE-2009-4308/linux-2.6.19#super.c#small#ext4_decode_error#242.c
p871
I14
sV/home/anderson/Documents/siamese_dataset/linux_data/fix/CVE-2009-2698/linux-2.6.27.43#udp.c#small#udp_sendmsg#482.c
p872
I151
sV/home/anderson/Documents/siamese_dataset/linux_data/vul/CVE-2013-6432/linux-3.0.55#ping.c#small#ping_recvmsg#622.c
p873
I37
sV/home/anderson/Documents/siamese_dataset/linux_data/fix/CVE-2010-2066/linux-4.2.8#move_extent.c#small#mext_check_arguments#446.c
p874
I21
sV/home/anderson/Documents/siamese_dataset/linux_data/vul/CVE-2008-3534/linux-2.5.15#shmem.c#small#shmem_delete_inode#338.c
p875
I15
sV/home/anderson/Documents/siamese_dataset/linux_data/fix/CVE-2010-3432/linux-4.18.9#output.c#small#sctp_packet_config#84.c
p876
I19
sV/home/anderson/Documents/siamese_dataset/linux_data/vul/CVE-2012-3511/linux-3.0.26#madvise.c#small#madvise_remove#193.c
p877
I13
sV/home/anderson/Documents/siamese_dataset/linux_data/fix/CVE-2011-1598/linux-3.18.21#bcm.c#small#bcm_release#1429.c
p878
I7
sV/home/anderson/Documents/siamese_dataset/linux_data/fix/CVE-2010-2942/linux-4.7.5#act_simple.c#small#tcf_simp_dump#145.c
p879
I6
sV/home/anderson/Documents/siamese_dataset/linux_data/vul/CVE-2011-1044/linux-2.6.19#uverbs_cmd.c#small#ib_uverbs_poll_cq#893.c
p880
I16
sV/home/anderson/Documents/siamese_dataset/linux_data/fix/CVE-2011-2213/linux-4.4.129#inet_diag.c#small#inet_diag_bc_audit#646.c
p881
I32
sV/home/anderson/Documents/siamese_dataset/linux_data/fix/CVE-2010-2240/linux-2.6.35.2#memory.c#small#do_anonymous_page#2787.c
p882
I9
sV/home/anderson/Documents/siamese_dataset/linux_data/vul/CVE-2012-0044/linux-2.6.11.2#drm_crtc.c#small#drm_mode_dirtyfb_ioctl#1831.c
p883
I40
sV/home/anderson/Documents/siamese_dataset/linux_data/vul/CVE-2011-1771/linux-2.6.35.2#file.c#small#cifs_close#562.c
p884
I49
sV/home/anderson/Documents/siamese_dataset/linux_data/vul/CVE-2009-1527/linux-2.6.11.2#ptrace.c#small#ptrace_attach#120.c
p885
I32
sV/home/anderson/Documents/siamese_dataset/linux_data/vul/CVE-2008-3534/linux-2.4.34.1#shmem.c#small#shmem_delete_inode#438.c
p886
I17
sV/home/anderson/Documents/siamese_dataset/linux_data/fix/CVE-2009-0746/linux-4.9.118#namei.c#small#make_indexed_dir#1967.c
p887
I35
sV/home/anderson/Documents/siamese_dataset/linux_data/vul/CVE-2014-0100/linux-3.10.5#inet_fragment.c#small#inet_frag_intern#244.c
p888
I11
sV/home/anderson/Documents/siamese_dataset/linux_data/fix/CVE-2010-0437/linux-4.8.2#ip6_output.c#small#ip6_dst_lookup_tail#903.c
p889
I52
sV/home/anderson/Documents/siamese_dataset/linux_data/vul/CVE-2010-2954/linux-2.6.14#af_irda.c#small#irda_open_tsap#468.c
p890
I1
sV/home/anderson/Documents/siamese_dataset/linux_data/fix/CVE-2020-25643/linux-5.10#hdlc_ppp.c#small#ppp_cp_parse_cr#373.c
p891
I15
sV/home/anderson/Documents/siamese_dataset/linux_data/fix/CVE-2012-4444/linux-5.0.10#reassembly.c#small#ip6_frag_queue#110.c
p892
I72
sV/home/anderson/Documents/siamese_dataset/linux_data/vul/CVE-2019-18805/linux-4.18#tcp_input.c#small#tcp_ack_update_rtt#2905.c
p893
I23
sV/home/anderson/Documents/siamese_dataset/linux_data/fix/CVE-2010-4163/linux-4.2.8#blk-map.c#small#blk_rq_map_user_iov#63.c
p894
I16
sV/home/anderson/Documents/siamese_dataset/linux_data/fix/CVE-2018-6554/linux-4.4.141#af_irda.c#small#irda_bind#764.c
p895
I4
sV/home/anderson/Documents/siamese_dataset/linux_data/vul/CVE-2010-2954/linux-2.6.22#af_irda.c#small#irda_bind#772.c
p896
I31
sV/home/anderson/Documents/siamese_dataset/linux_data/fix/CVE-2005-4635/linux-3.19.2#fib_frontend.c#small#nl_fib_input#950.c
p897
I23
sV/home/anderson/Documents/siamese_dataset/linux_data/vul/CVE-2009-2698/linux-2.6.14#udp.c#small#udp_sendmsg#483.c
p898
I152
sV/home/anderson/Documents/siamese_dataset/linux_data/vul/CVE-2010-4081/linux-2.6.35.2#hdspm.c#small#snd_hdspm_hwdep_ioctl#4103.c
p899
I6
sV/home/anderson/Documents/siamese_dataset/linux_data/vul/CVE-2010-3442/linux-2.6.35.2#control.c#small#snd_ctl_new#190.c
p900
I7
sV/home/anderson/Documents/siamese_dataset/linux_data/vul/CVE-2011-0711/linux-2.6.19#xfs_fsops.c#small#xfs_fs_geometry#52.c
p901
I20
sV/home/anderson/Documents/siamese_dataset/linux_data/vul/CVE-2009-2847/linux-2.6.11.5#signal.c#small#do_sigaltstack#2418.c
p902
I48
sV/home/anderson/Documents/siamese_dataset/linux_data/fix/CVE-2009-1338/linux-4.19.57#signal.c#small#kill_something_info#1482.c
p903
I24
sV/home/anderson/Documents/siamese_dataset/linux_data/vul/CVE-2014-1739/linux-3.0.21#media-device.c#small#media_device_enum_entities#86.c
p904
I5
sV/home/anderson/Documents/siamese_dataset/linux_data/fix/CVE-2010-3442/linux-3.18.122#control.c#small#snd_ctl_new#197.c
p905
I10
sV/home/anderson/Documents/siamese_dataset/linux_data/fix/CVE-2010-2240/linux-4.2.8#memory.c#small#do_anonymous_page#2662.c
p906
I15
sV/home/anderson/Documents/siamese_dataset/linux_data/fix/CVE-2009-1527/linux-4.4.133#ptrace.c#small#ptrace_attach#310.c
p907
I65
sV/home/anderson/Documents/siamese_dataset/linux_data/fix/CVE-2013-4588/linux-3.0.21#ip_vs_ctl.c#small#do_ip_vs_get_ctl#2559.c
p908
I6
sV/home/anderson/Documents/siamese_dataset/linux_data/vul/CVE-2014-3611/linux-3.3#i8254.c#small#__kvm_migrate_pit_timer#257.c
p909
I11
sV/home/anderson/Documents/siamese_dataset/linux_data/vul/CVE-2009-2406/linux-2.6.19#keystore.c#small#parse_tag_11_packet#358.c
p910
I3
sV/home/anderson/Documents/siamese_dataset/linux_data/fix/CVE-2010-2954/linux-4.18.9#af_irda.c#small#irda_bind#765.c
p911
I46
sV/home/anderson/Documents/siamese_dataset/linux_data/fix/CVE-2014-4655/linux-4.19.6#control.c#small#snd_ctl_elem_add#1234.c
p912
I34
sV/home/anderson/Documents/siamese_dataset/linux_data/vul/CVE-2012-0044/linux-2.6.8.1#drm_crtc.c#small#drm_mode_dirtyfb_ioctl#1797.c
p913
I37
sV/home/anderson/Documents/siamese_dataset/linux_data/fix/CVE-2009-2698/linux-2.6.38.8#udp.c#small#udp_sendmsg#772.c
p914
I165
sV/home/anderson/Documents/siamese_dataset/linux_data/vul/CVE-2011-3637/linux-2.6.11.5#task_mmu.c#small#m_stop#139.c
p915
I7
sV/home/anderson/Documents/siamese_dataset/linux_data/vul/CVE-2013-7269/linux-3.12.1#af_netrom.c#small#nr_recvmsg#1136.c
p916
I44
sV/home/anderson/Documents/siamese_dataset/linux_data/fix/CVE-2009-0778/linux-4.4.140#icmp.c#small#icmp_send#568.c
p917
I52
sV/home/anderson/Documents/siamese_dataset/linux_data/vul/CVE-2009-1630/linux-2.6.10#dir.c#small#nfs_permission#1555.c
p918
I17
sV/home/anderson/Documents/siamese_dataset/linux_data/fix/CVE-2010-2066/linux-4.19#move_extent.c#small#mext_check_arguments#446.c
p919
I21
sV/home/anderson/Documents/siamese_dataset/linux_data/vul/CVE-2010-3442/linux-2.6.19#control.c#small#snd_ctl_new#193.c
p920
I7
sV/home/anderson/Documents/siamese_dataset/linux_data/fix/CVE-2009-3638/linux-3.18.21#x86.c#small#kvm_arch_dev_ioctl#2784.c
p921
I34
sV/home/anderson/Documents/siamese_dataset/linux_data/vul/CVE-2009-1527/linux-2.6.14#ptrace.c#small#ptrace_attach#148.c
p922
I20
sV/home/anderson/Documents/siamese_dataset/linux_data/vul/CVE-2012-3511/linux-3.3#madvise.c#small#madvise_remove#193.c
p923
I13
sV/home/anderson/Documents/siamese_dataset/linux_data/vul/CVE-2010-0437/linux-2.6.22#ip6_output.c#small#ip6_dst_lookup_tail#875.c
p924
I19
sV/home/anderson/Documents/siamese_dataset/linux_data/fix/CVE-2009-1630/linux-2.6.11.3#dir.c#small#nfs_permission#1498.c
p925
I8
sV/home/anderson/Documents/siamese_dataset/linux_data/vul/CVE-2017-18249/linux-4.4.126#node.c#small#add_free_nid#1427.c
p926
I14
sV/home/anderson/Documents/siamese_dataset/linux_data/vul/CVE-2009-1527/linux-2.4.36.3#ptrace.c#small#ptrace_attach#56.c
p927
I27
sV/home/anderson/Documents/siamese_dataset/linux_data/vul/CVE-2010-2521/linux-2.6.8.1#nfs4xdr.c#small#nfsd4_decode_compound#1036.c
p928
I33
sV/home/anderson/Documents/siamese_dataset/linux_data/vul/CVE-2011-3637/linux-2.5.50#task_mmu.c#small#m_stop#135.c
p929
I6
sV/home/anderson/Documents/siamese_dataset/linux_data/fix/CVE-2019-19602/linux-5.11#internal.h#small#fpregs_state_valid#481 .c
p930
I3
sV/home/anderson/Documents/siamese_dataset/linux_data/vul/CVE-2010-4565/linux-2.6.35.2#bcm.c#small#bcm_connect#1473.c
p931
I1
sV/home/anderson/Documents/siamese_dataset/linux_data/vul/CVE-2014-2309/linux-3.0.38#route.c#small#ip6_route_add#1183.c
p932
I36
sV/home/anderson/Documents/siamese_dataset/linux_data/vul/CVE-2017-18221/linux-4.7.5#mlock.c#small#__munlock_pagevec#281.c
p933
I5
sV/home/anderson/Documents/siamese_dataset/linux_data/fix/CVE-2010-2803/linux-3.10.90#drm_drv.c#small#drm_ioctl#373.c
p934
I79
sV/home/anderson/Documents/siamese_dataset/linux_data/vul/CVE-2005-0180/linux-2.6.11.5#scsi_ioctl.c#small#sg_scsi_ioctl#338.c
p935
I33
sV/home/anderson/Documents/siamese_dataset/linux_data/fix/CVE-2010-2240/linux-4.4.10#memory.c#small#do_anonymous_page#2703.c
p936
I15
sV/home/anderson/Documents/siamese_dataset/linux_data/vul/CVE-2011-2905/linux-3.0.21#config.c#small#perf_config#399.c
p937
I21
sV/home/anderson/Documents/siamese_dataset/linux_data/fix/CVE-2011-2905/linux-5.1.14#config.c#small#perf_config#722.c
p938
I26
sV/home/anderson/Documents/siamese_dataset/linux_data/fix/CVE-2010-4081/linux-3.14.44#hdspm.c#small#snd_hdspm_hwdep_ioctl#6234.c
p939
I108
sV/home/anderson/Documents/siamese_dataset/linux_data/fix/CVE-2014-3611/linux-4.2.4#i8254.c#small#__kvm_migrate_pit_timer#256.c
p940
I10
sV/home/anderson/Documents/siamese_dataset/linux_data/fix/CVE-2005-0180/linux-3.19.2#scsi_ioctl.c#small#sg_scsi_ioctl#427.c
p941
I40
sV/home/anderson/Documents/siamese_dataset/linux_data/fix/CVE-2010-1162/linux-4.9.23#tty_io.c#small#release_one_tty#1626.c
p942
I19
sV/home/anderson/Documents/siamese_dataset/linux_data/vul/CVE-2014-2889/linux-3.0.38#bpf_jit_comp.c#small#bpf_jit_compile#121.c
p943
I334
sV/home/anderson/Documents/siamese_dataset/linux_data/fix/CVE-2009-1527/linux-3.4.36#ptrace.c#small#ptrace_attach#272.c
p944
I67
sV/home/anderson/Documents/siamese_dataset/linux_data/vul/CVE-2009-1192/linux-2.6.30#generic.c#small#agp_generic_alloc_pages#1223.c
p945
I7
sV/home/anderson/Documents/siamese_dataset/linux_data/vul/CVE-2018-6554/linux-2.3.33#af_irda.c#small#irda_bind#467.c
p946
I4
sV/home/anderson/Documents/siamese_dataset/linux_data/vul/CVE-2014-2851/linux-3.10.5#ping.c#small#ping_init_sock#203.c
p947
I5
sV/home/anderson/Documents/siamese_dataset/linux_data/fix/CVE-2009-2847/linux-4.4.14#signal.c#small#do_sigaltstack#3090.c
p948
I17
sV/home/anderson/Documents/siamese_dataset/linux_data/fix/CVE-2009-1527/linux-3.10.5#ptrace.c#small#ptrace_attach#278.c
p949
I69
sV/home/anderson/Documents/siamese_dataset/linux_data/vul/CVE-2021-43057/linux-5.14#hooks.c#small#selinux_ptrace_traceme#2155.c
p950
I4
sV/home/anderson/Documents/siamese_dataset/linux_data/fix/CVE-2013-0290/linux-4.5.5#datagram.c#small#__skb_recv_datagram#264.c
p951
I10
sV/home/anderson/Documents/siamese_dataset/linux_data/vul/CVE-2010-4073/linux-2.6.7#compat.c#small#compat_sys_shmctl#639.c
p952
I9
sV/home/anderson/Documents/siamese_dataset/linux_data/vul/CVE-2010-3442/linux-2.6.8#control.c#small#snd_ctl_new#184.c
p953
I7
sV/home/anderson/Documents/siamese_dataset/linux_data/vul/CVE-2019-19602/linux-5.0#internal.h#small#fpregs_state_valid#499.c
p954
I3
sV/home/anderson/Documents/siamese_dataset/linux_data/vul/CVE-2011-1078/linux-2.6.38.7#sco.c#small#sco_sock_getsockopt_old#669.c
p955
I38
sV/home/anderson/Documents/siamese_dataset/linux_data/fix/CVE-2009-1630/linux-3.19.2#dir.c#small#nfs_permission#2436.c
p956
I8
sV/home/anderson/Documents/siamese_dataset/linux_data/fix/CVE-2019-19602/linux-5.9.rc3#internal.h#small#fpregs_state_valid#480.c
p957
I3
sV/home/anderson/Documents/siamese_dataset/linux_data/fix/CVE-2010-2803/linux-3.4.83#drm_drv.c#small#drm_ioctl#383.c
p958
I78
sV/home/anderson/Documents/siamese_dataset/linux_data/fix/CVE-2010-3877/linux-3.14.44#socket.c#small#get_name#436.c
p959
I7
sV/home/anderson/Documents/siamese_dataset/linux_data/vul/CVE-2014-9584/linux-2.6.8#rock.c#small#parse_rock_ridge_inode_internal#162.c
p960
I42
sV/home/anderson/Documents/siamese_dataset/linux_data/fix/CVE-2009-2698/linux-3.10.5#udp.c#small#udp_sendmsg#823.c
p961
I192
sV/home/anderson/Documents/siamese_dataset/linux_data/fix/CVE-2009-1527/linux-4.19.6#ptrace.c#small#ptrace_attach#343.c
p962
I65
sV/home/anderson/Documents/siamese_dataset/linux_data/vul/CVE-2010-2954/linux-2.6.11.2#af_irda.c#small#irda_bind#779.c
p963
I39
sV/home/anderson/Documents/siamese_dataset/linux_data/fix/CVE-2014-0131/linux-4.18.9#skbuff.c#small#skb_segment#3502.c
p964
I10
sV/home/anderson/Documents/siamese_dataset/linux_data/fix/CVE-2010-4649/linux-5.1.4#uverbs_cmd.c#small#ib_uverbs_poll_cq#1156.c
p965
I22
sV/home/anderson/Documents/siamese_dataset/linux_data/fix/CVE-2014-1446/linux-4.18.9#yam.c#small#yam_ioctl#938.c
p966
I103
sV/home/anderson/Documents/siamese_dataset/linux_data/vul/CVE-2014-4655/linux-3.4.52#control.c#small#snd_ctl_elem_add#1126.c
p967
I11
sV/home/anderson/Documents/siamese_dataset/linux_data/fix/CVE-2014-2889/linux-3.14.44#bpf_jit_comp.c#small#bpf_jit_compile#181.c
p968
I390
sV/home/anderson/Documents/siamese_dataset/linux_data/fix/CVE-2009-1961/linux-3.10.90#file.c#small#ocfs2_file_splice_write#2452.c
p969
I33
sV/home/anderson/Documents/siamese_dataset/linux_data/fix/CVE-2010-0437/linux-3.4.71#ip6_output.c#small#ip6_dst_lookup_tail#956.c
p970
I28
sV/home/anderson/Documents/siamese_dataset/linux_data/fix/CVE-2014-1739/linux-4.4.14#media-device.c#small#media_device_enum_entities#90.c
p971
I7
sV/home/anderson/Documents/siamese_dataset/linux_data/fix/CVE-2008-2136/linux-2.6.11.10#sit.c#small#ipip6_rcv#368.c
p972
I6
sV/home/anderson/Documents/siamese_dataset/linux_data/fix/CVE-2012-6547/linux-4.4.135#tun.c#small#__tun_chr_ioctl#1883.c
p973
I20
sV/home/anderson/Documents/siamese_dataset/linux_data/fix/CVE-2009-2698/linux-2.6.32.14#udp.c#small#udp_sendmsg#579.c
p974
I167
sV/home/anderson/Documents/siamese_dataset/linux_data/vul/CVE-2020-27194/linux-5.7#verifier.c#small#scalar32_min_max_or#5335.c
p975
I7
sV/home/anderson/Documents/siamese_dataset/linux_data/vul/CVE-2010-2942/linux-2.6.22#act_mirred.c#small#tcf_mirred_dump#208.c
p976
I5
sV/home/anderson/Documents/siamese_dataset/linux_data/vul/CVE-2010-4165/linux-2.6.19#tcp.c#small#do_tcp_setsockopt#1773.c
p977
I37
sV/home/anderson/Documents/siamese_dataset/linux_data/fix/CVE-2009-1961/linux-2.6.30.8#file.c#small#ocfs2_file_splice_write#1931.c
p978
I23
sV/home/anderson/Documents/siamese_dataset/linux_data/fix/CVE-2008-3534/linux-2.6.27.25#shmem.c#small#shmem_delete_inode#799.c
p979
I18
sV/home/anderson/Documents/siamese_dataset/linux_data/vul/CVE-2018-6927/linux-2.5.50#futex.c#small#futex_requeue#218.c
p980
I20
sV/home/anderson/Documents/siamese_dataset/linux_data/fix/CVE-2011-4086/linux-3.4.8#transaction.c#small#journal_unmap_buffer#1844.c
p981
I86
sV/home/anderson/Documents/siamese_dataset/linux_data/fix/CVE-2011-3637/linux-4.19.58#task_mmu.c#small#m_stop#210.c
p982
I8
sV/home/anderson/Documents/siamese_dataset/linux_data/vul/CVE-2011-2905/linux-3.0.38#config.c#small#perf_config#399.c
p983
I21
sV/home/anderson/Documents/siamese_dataset/linux_data/fix/CVE-2010-0437/linux-4.9.182#ip6_output.c#small#ip6_dst_lookup_tail#937.c
p984
I45
sV/home/anderson/Documents/siamese_dataset/linux_data/fix/CVE-2009-3722/linux-3.0.55#vmx.c#small#handle_dr#3438.c
p985
I6
sV/home/anderson/Documents/siamese_dataset/linux_data/vul/CVE-2014-4667/linux-3.0.26#associola.c#small#sctp_association_free#379.c
p986
I8
sV/home/anderson/Documents/siamese_dataset/linux_data/fix/CVE-2011-2906/linux-3.0.55#pmcraid.c#small#pmcraid_ioctl_passthrough#3733.c
p987
I83
sV/home/anderson/Documents/siamese_dataset/linux_data/vul/CVE-2013-7348/linux-3.4.36#aio.c#small#ioctx_alloc#242.c
p988
I53
sV/home/anderson/Documents/siamese_dataset/linux_data/vul/CVE-2014-7841/linux-3.0.26#sm_make_chunk.c#small#sctp_process_param#2448.c
p989
I27
sV/home/anderson/Documents/siamese_dataset/linux_data/fix/CVE-2010-2942/linux-5.1.4#act_mirred.c#small#tcf_mirred_dump#316.c
p990
I6
sV/home/anderson/Documents/siamese_dataset/linux_data/fix/CVE-2011-0711/linux-3.4.8#xfs_fsops.c#small#xfs_fs_geometry#50.c
p991
I8
sV/home/anderson/Documents/siamese_dataset/linux_data/vul/CVE-2010-4165/linux-2.6.32.5#tcp.c#small#do_tcp_setsockopt#2078.c
p992
I37
sV/home/anderson/Documents/siamese_dataset/linux_data/fix/CVE-2014-2851/linux-4.19.7#ping.c#small#ping_init_sock#257.c
p993
I5
sV/home/anderson/Documents/siamese_dataset/linux_data/fix/CVE-2009-4005/linux-3.2.12#hfc_usb.c#small#collect_rx_frame#780.c
p994
I10
sV/home/anderson/Documents/siamese_dataset/linux_data/fix/CVE-2012-4444/linux-3.4.83#reassembly.c#small#ip6_frag_queue#253.c
p995
I75
sV/home/anderson/Documents/siamese_dataset/linux_data/vul/CVE-2009-2406/linux-2.6.22#keystore.c#small#parse_tag_11_packet#829.c
p996
I3
sV/home/anderson/Documents/siamese_dataset/linux_data/vul/CVE-2008-3534/linux-2.6.13#shmem.c#small#shmem_delete_inode#665.c
p997
I22
sV/home/anderson/Documents/siamese_dataset/linux_data/vul/CVE-2013-4588/linux-2.6.32.4#ip_vs_ctl.c#small#do_ip_vs_get_ctl#2350.c
p998
I16
sV/home/anderson/Documents/siamese_dataset/linux_data/fix/CVE-2010-2942/linux-5.0.15#act_simple.c#small#tcf_simp_dump#172.c
p999
I6
sV/home/anderson/Documents/siamese_dataset/linux_data/fix/CVE-2021-43057/linux-5.17.rc4#hooks.c#small#selinux_ptrace_traceme#2100.c
p1000
I4
s.