(lp0
(dp1
S'spro'
p2
(dp3
S'ast_tree'
p4
ccopy_reg
_reconstructor
p5
(cImplementation.source2slice.every_type_graph.tree
Tree
p6
c__builtin__
object
p7
Ntp8
Rp9
(dp10
S'num_children'
p11
I0
sS'code'
p12
Vstruct hm_header_st * msg_hdr
p13
sS'type'
p14
VParameter
p15
sS'children'
p16
(lp17
sS'parent'
p18
Nsbsg12
S'struct hm_header_st * msg_hdr'
p19
sg14
S'Parameter'
p20
sS'lineNo'
p21
S'2'
p22
ssS'label'
p23
S'1'
p24
sS'eid'
p25
S'5254'
p26
sS'epro'
p27
(dp28
g4
g5
(g6
g7
Ntp29
Rp30
(dp31
g11
I0
sg12
Vmemcpy ( & ( frag -> msg_header ) , msg_hdr , sizeof ( * msg_hdr ) )
p32
sg14
VExpressionStatement
p33
sg16
(lp34
sg18
Nsbsg12
S'memcpy ( & ( frag -> msg_header ) , msg_hdr , sizeof ( * msg_hdr ) )'
p35
sg14
S'ExpressionStatement'
p36
sg21
S'31'
p37
ssS'sid'
p38
S'5108'
p39
sa(dp40
g2
(dp41
g4
g5
(g6
g7
Ntp42
Rp43
(dp44
g11
I0
sg12
g13
sg14
g15
sg16
(lp45
sg18
Nsbsg12
S'struct hm_header_st * msg_hdr'
p46
sg14
S'Parameter'
p47
sg21
S'2'
p48
ssg23
g24
sg25
S'5342'
p49
sg27
(dp50
g4
g5
(g6
g7
Ntp51
Rp52
(dp53
g11
I0
sg12
Vmsg_hdr -> seq <= s -> d1 -> handshake_read_seq
p54
sg14
VCondition
p55
sg16
(lp56
sg18
Nsbsg12
S'msg_hdr -> seq <= s -> d1 -> handshake_read_seq'
p57
sg14
S'Condition'
p58
sg21
S'13'
p59
ssg38
g39
sa(dp60
g2
(dp61
g4
g5
(g6
g7
Ntp62
Rp63
(dp64
g11
I0
sg12
g13
sg14
g15
sg16
(lp65
sg18
Nsbsg12
S'struct hm_header_st * msg_hdr'
p66
sg14
S'Parameter'
p67
sg21
S'2'
p68
ssg23
g24
sg25
S'5355'
p69
sg27
(dp70
g4
g5
(g6
g7
Ntp71
Rp72
(dp73
g11
I0
sg12
V( msg_hdr -> frag_off + frag_len ) > msg_hdr -> msg_len
p74
sg14
VCondition
p75
sg16
(lp76
sg18
Nsbsg12
S'( msg_hdr -> frag_off + frag_len ) > msg_hdr -> msg_len'
p77
sg14
S'Condition'
p78
sg21
S'10'
p79
ssg38
g39
sa(dp80
g2
(dp81
g4
g5
(g6
g7
Ntp82
Rp83
(dp84
g11
I0
sg12
g13
sg14
g15
sg16
(lp85
sg18
Nsbsg12
S'struct hm_header_st * msg_hdr'
p86
sg14
S'Parameter'
p87
sg21
S'2'
p88
ssg23
g24
sg25
S'5365'
p89
sg27
(dp90
g4
g5
(g6
g7
Ntp91
Rp92
(dp93
g11
I0
sg12
Vunsigned long frag_len = msg_hdr -> frag_len ;
p94
sg14
VIdentifierDeclStatement
p95
sg16
(lp96
sg18
Nsbsg12
S'unsigned long frag_len = msg_hdr -> frag_len ;'
p97
sg14
S'IdentifierDeclStatement'
p98
sg21
S'8'
p99
ssg38
g39
sa(dp100
g2
(dp101
g4
g5
(g6
g7
Ntp102
Rp103
(dp104
g11
I0
sg12
VSSL * s
p105
sg14
VParameter
p106
sg16
(lp107
sg18
Nsbsg12
S'SSL * s'
p108
sg14
S'Parameter'
p109
sg21
S'2'
p110
ssg23
g24
sg25
S'5229'
p111
sg27
(dp112
g4
g5
(g6
g7
Ntp113
Rp114
(dp115
g11
I0
sg12
Vi = s -> method -> ssl_read_bytes ( s , SSL3_RT_HANDSHAKE , frag -> fragment , frag_len , 0 )
p116
sg14
VExpressionStatement
p117
sg16
(lp118
sg18
Nsbsg12
S'i = s -> method -> ssl_read_bytes ( s , SSL3_RT_HANDSHAKE , frag -> fragment , frag_len , 0 )'
p119
sg14
S'ExpressionStatement'
p120
sg21
S'36'
p121
ssg38
S'5111'
p122
sa(dp123
g2
(dp124
g4
g5
(g6
g7
Ntp125
Rp126
(dp127
g11
I0
sg12
g105
sg14
g106
sg16
(lp128
sg18
Nsbsg12
S'SSL * s'
p129
sg14
S'Parameter'
p130
sg21
S'2'
p131
ssg23
g24
sg25
S'5304'
p132
sg27
(dp133
g4
g5
(g6
g7
Ntp134
Rp135
(dp136
g11
I0
sg12
Vi = s -> method -> ssl_read_bytes ( s , SSL3_RT_HANDSHAKE , devnull , frag_len > sizeof ( devnull ) ? sizeof ( devnull ) : frag_len , 0 )
p137
sg14
VExpressionStatement
p138
sg16
(lp139
sg18
Nsbsg12
S'i = s -> method -> ssl_read_bytes ( s , SSL3_RT_HANDSHAKE , devnull , frag_len > sizeof ( devnull ) ? sizeof ( devnull ) : frag_len , 0 )'
p140
sg14
S'ExpressionStatement'
p141
sg21
S'19'
p142
ssg38
g122
sa(dp143
g2
(dp144
g4
g5
(g6
g7
Ntp145
Rp146
(dp147
g11
I0
sg12
g105
sg14
g106
sg16
(lp148
sg18
Nsbsg12
S'SSL * s'
p149
sg14
S'Parameter'
p150
sg21
S'2'
p151
ssg23
g24
sg25
g49
sg27
(dp152
g4
g5
(g6
g7
Ntp153
Rp154
(dp155
g11
I0
sg12
g54
sg14
g55
sg16
(lp156
sg18
Nsbsg12
S'msg_hdr -> seq <= s -> d1 -> handshake_read_seq'
p157
sg14
S'Condition'
p158
sg21
S'13'
p159
ssg38
g122
sa(dp160
g2
(dp161
g4
g5
(g6
g7
Ntp162
Rp163
(dp164
g11
I0
sg12
g116
sg14
g117
sg16
(lp165
sg18
Nsbsg12
S'i = s -> method -> ssl_read_bytes ( s , SSL3_RT_HANDSHAKE , frag -> fragment , frag_len , 0 )'
p166
sg14
S'ExpressionStatement'
p167
sg21
S'36'
p168
ssg23
g24
sg25
S'5219'
p169
sg27
(dp170
g4
g5
(g6
g7
Ntp171
Rp172
(dp173
g11
I0
sg12
Vi <= 0 || ( unsigned long ) i != frag_len
p174
sg14
VCondition
p175
sg16
(lp176
sg18
Nsbsg12
S'i <= 0 || ( unsigned long ) i != frag_len'
p177
sg14
S'Condition'
p178
sg21
S'38'
p179
ssg38
g111
sa(dp180
g2
(dp181
g4
g5
(g6
g7
Ntp182
Rp183
(dp184
g11
I0
sg12
Vfrag = dtls1_hm_fragment_new ( frag_len )
p185
sg14
VExpressionStatement
p186
sg16
(lp187
sg18
Nsbsg12
S'frag = dtls1_hm_fragment_new ( frag_len )'
p188
sg14
S'ExpressionStatement'
p189
sg21
S'27'
p190
ssg23
g24
sg25
g111
sg27
(dp191
g4
g5
(g6
g7
Ntp192
Rp193
(dp194
g11
I0
sg12
g116
sg14
g117
sg16
(lp195
sg18
Nsbsg12
S'i = s -> method -> ssl_read_bytes ( s , SSL3_RT_HANDSHAKE , frag -> fragment , frag_len , 0 )'
p196
sg14
S'ExpressionStatement'
p197
sg21
S'36'
p198
ssg38
S'5280'
p199
sa(dp200
g2
(dp201
g4
g5
(g6
g7
Ntp202
Rp203
(dp204
g11
I0
sg12
g185
sg14
g186
sg16
(lp205
sg18
Nsbsg12
S'frag = dtls1_hm_fragment_new ( frag_len )'
p206
sg14
S'ExpressionStatement'
p207
sg21
S'27'
p208
ssg23
g24
sg25
g26
sg27
(dp209
g4
g5
(g6
g7
Ntp210
Rp211
(dp212
g11
I0
sg12
g32
sg14
g33
sg16
(lp213
sg18
Nsbsg12
S'memcpy ( & ( frag -> msg_header ) , msg_hdr , sizeof ( * msg_hdr ) )'
p214
sg14
S'ExpressionStatement'
p215
sg21
S'31'
p216
ssg38
g199
sa(dp217
g2
(dp218
g4
g5
(g6
g7
Ntp219
Rp220
(dp221
g11
I0
sg12
g185
sg14
g186
sg16
(lp222
sg18
Nsbsg12
S'frag = dtls1_hm_fragment_new ( frag_len )'
p223
sg14
S'ExpressionStatement'
p224
sg21
S'27'
p225
ssg23
g24
sg25
S'5276'
p226
sg27
(dp227
g4
g5
(g6
g7
Ntp228
Rp229
(dp230
g11
I0
sg12
Vfrag == NULL
p231
sg14
VCondition
p232
sg16
(lp233
sg18
Nsbsg12
S'frag == NULL'
p234
sg14
S'Condition'
p235
sg21
S'28'
p236
ssg38
g199
sa(dp237
g2
(dp238
g4
g5
(g6
g7
Ntp239
Rp240
(dp241
g11
I0
sg12
Vfrag_len -= i
p242
sg14
VExpressionStatement
p243
sg16
(lp244
sg18
Nsbsg12
S'frag_len -= i'
p245
sg14
S'ExpressionStatement'
p246
sg21
S'23'
p247
ssg23
g24
sg25
S'5252'
p248
sg27
(dp249
g4
g5
(g6
g7
Ntp250
Rp251
(dp252
g11
I0
sg12
Vfrag_len
p253
sg14
VCondition
p254
sg16
(lp255
sg18
Nsbsg12
S'frag_len'
p256
sg14
S'Condition'
p257
sg21
S'33'
p258
ssg38
S'5293'
p259
sa(dp260
g2
(dp261
g4
g5
(g6
g7
Ntp262
Rp263
(dp264
g11
I0
sg12
g242
sg14
g243
sg16
(lp265
sg18
Nsbsg12
S'frag_len -= i'
p266
sg14
S'ExpressionStatement'
p267
sg21
S'23'
p268
ssg23
g24
sg25
g199
sg27
(dp269
g4
g5
(g6
g7
Ntp270
Rp271
(dp272
g11
I0
sg12
g185
sg14
g186
sg16
(lp273
sg18
Nsbsg12
S'frag = dtls1_hm_fragment_new ( frag_len )'
p274
sg14
S'ExpressionStatement'
p275
sg21
S'27'
p276
ssg38
g259
sa(dp277
g2
(dp278
g4
g5
(g6
g7
Ntp279
Rp280
(dp281
g11
I0
sg12
g242
sg14
g243
sg16
(lp282
sg18
Nsbsg12
S'frag_len -= i'
p283
sg14
S'ExpressionStatement'
p284
sg21
S'23'
p285
ssg23
g24
sg25
g111
sg27
(dp286
g4
g5
(g6
g7
Ntp287
Rp288
(dp289
g11
I0
sg12
g116
sg14
g117
sg16
(lp290
sg18
Nsbsg12
S'i = s -> method -> ssl_read_bytes ( s , SSL3_RT_HANDSHAKE , frag -> fragment , frag_len , 0 )'
p291
sg14
S'ExpressionStatement'
p292
sg21
S'36'
p293
ssg38
g259
sa(dp294
g2
(dp295
g4
g5
(g6
g7
Ntp296
Rp297
(dp298
g11
I0
sg12
g242
sg14
g243
sg16
(lp299
sg18
Nsbsg12
S'frag_len -= i'
p300
sg14
S'ExpressionStatement'
p301
sg21
S'23'
p302
ssg23
g24
sg25
g132
sg27
(dp303
g4
g5
(g6
g7
Ntp304
Rp305
(dp306
g11
I0
sg12
g137
sg14
g138
sg16
(lp307
sg18
Nsbsg12
S'i = s -> method -> ssl_read_bytes ( s , SSL3_RT_HANDSHAKE , devnull , frag_len > sizeof ( devnull ) ? sizeof ( devnull ) : frag_len , 0 )'
p308
sg14
S'ExpressionStatement'
p309
sg21
S'19'
p310
ssg38
g259
sa(dp311
g2
(dp312
g4
g5
(g6
g7
Ntp313
Rp314
(dp315
g11
I0
sg12
g242
sg14
g243
sg16
(lp316
sg18
Nsbsg12
S'frag_len -= i'
p317
sg14
S'ExpressionStatement'
p318
sg21
S'23'
p319
ssg23
g24
sg25
S'5335'
p320
sg27
(dp321
g4
g5
(g6
g7
Ntp322
Rp323
(dp324
g11
I0
sg12
Vfrag_len
p325
sg14
VCondition
p326
sg16
(lp327
sg18
Nsbsg12
S'frag_len'
p328
sg14
S'Condition'
p329
sg21
S'17'
p330
ssg38
g259
sa(dp331
g2
(dp332
g4
g5
(g6
g7
Ntp333
Rp334
(dp335
g11
I0
sg12
g242
sg14
g243
sg16
(lp336
sg18
Nsbsg12
S'frag_len -= i'
p337
sg14
S'ExpressionStatement'
p338
sg21
S'23'
p339
ssg23
g24
sg25
g169
sg27
(dp340
g4
g5
(g6
g7
Ntp341
Rp342
(dp343
g11
I0
sg12
g174
sg14
g175
sg16
(lp344
sg18
Nsbsg12
S'i <= 0 || ( unsigned long ) i != frag_len'
p345
sg14
S'Condition'
p346
sg21
S'38'
p347
ssg38
g259
sa(dp348
g2
(dp349
g4
g5
(g6
g7
Ntp350
Rp351
(dp352
g11
I0
sg12
g242
sg14
g243
sg16
(lp353
sg18
Nsbsg12
S'frag_len -= i'
p354
sg14
S'ExpressionStatement'
p355
sg21
S'23'
p356
ssg23
g24
sg25
g259
sg27
(dp357
g4
g5
(g6
g7
Ntp358
Rp359
(dp360
g11
I0
sg12
g242
sg14
g243
sg16
(lp361
sg18
Nsbsg12
S'frag_len -= i'
p362
sg14
S'ExpressionStatement'
p363
sg21
S'23'
p364
ssg38
g259
sa(dp365
g2
(dp366
g4
g5
(g6
g7
Ntp367
Rp368
(dp369
g11
I0
sg12
g137
sg14
g138
sg16
(lp370
sg18
Nsbsg12
S'i = s -> method -> ssl_read_bytes ( s , SSL3_RT_HANDSHAKE , devnull , frag_len > sizeof ( devnull ) ? sizeof ( devnull ) : frag_len , 0 )'
p371
sg14
S'ExpressionStatement'
p372
sg21
S'19'
p373
ssg23
g24
sg25
g259
sg27
(dp374
g4
g5
(g6
g7
Ntp375
Rp376
(dp377
g11
I0
sg12
g242
sg14
g243
sg16
(lp378
sg18
Nsbsg12
S'frag_len -= i'
p379
sg14
S'ExpressionStatement'
p380
sg21
S'23'
p381
ssg38
g132
sa(dp382
g2
(dp383
g4
g5
(g6
g7
Ntp384
Rp385
(dp386
g11
I0
sg12
g137
sg14
g138
sg16
(lp387
sg18
Nsbsg12
S'i = s -> method -> ssl_read_bytes ( s , SSL3_RT_HANDSHAKE , devnull , frag_len > sizeof ( devnull ) ? sizeof ( devnull ) : frag_len , 0 )'
p388
sg14
S'ExpressionStatement'
p389
sg21
S'19'
p390
ssg23
g24
sg25
S'5300'
p391
sg27
(dp392
g4
g5
(g6
g7
Ntp393
Rp394
(dp395
g11
I0
sg12
Vi <= 0
p396
sg14
VCondition
p397
sg16
(lp398
sg18
Nsbsg12
S'i <= 0'
p399
sg14
S'Condition'
p400
sg21
S'22'
p401
ssg38
g132
sa(dp402
g2
(dp403
g4
g5
(g6
g7
Ntp404
Rp405
(dp406
g11
I0
sg12
Vunsigned char devnull [ 256 ] ;
p407
sg14
VIdentifierDeclStatement
p408
sg16
(lp409
sg18
Nsbsg12
S'unsigned char devnull [ 256 ] ;'
p410
sg14
S'IdentifierDeclStatement'
p411
sg21
S'15'
p412
ssg23
g24
sg25
g132
sg27
(dp413
g4
g5
(g6
g7
Ntp414
Rp415
(dp416
g11
I0
sg12
g137
sg14
g138
sg16
(lp417
sg18
Nsbsg12
S'i = s -> method -> ssl_read_bytes ( s , SSL3_RT_HANDSHAKE , devnull , frag_len > sizeof ( devnull ) ? sizeof ( devnull ) : frag_len , 0 )'
p418
sg14
S'ExpressionStatement'
p419
sg21
S'19'
p420
ssg38
S'5337'
p421
sa(dp422
g2
(dp423
g4
g5
(g6
g7
Ntp424
Rp425
(dp426
g11
I0
sg12
g94
sg14
g95
sg16
(lp427
sg18
Nsbsg12
S'unsigned long frag_len = msg_hdr -> frag_len ;'
p428
sg14
S'IdentifierDeclStatement'
p429
sg21
S'8'
p430
ssg23
g24
sg25
g248
sg27
(dp431
g4
g5
(g6
g7
Ntp432
Rp433
(dp434
g11
I0
sg12
g253
sg14
g254
sg16
(lp435
sg18
Nsbsg12
S'frag_len'
p436
sg14
S'Condition'
p437
sg21
S'33'
p438
ssg38
g89
sa(dp439
g2
(dp440
g4
g5
(g6
g7
Ntp441
Rp442
(dp443
g11
I0
sg12
g94
sg14
g95
sg16
(lp444
sg18
Nsbsg12
S'unsigned long frag_len = msg_hdr -> frag_len ;'
p445
sg14
S'IdentifierDeclStatement'
p446
sg21
S'8'
p447
ssg23
g24
sg25
g199
sg27
(dp448
g4
g5
(g6
g7
Ntp449
Rp450
(dp451
g11
I0
sg12
g185
sg14
g186
sg16
(lp452
sg18
Nsbsg12
S'frag = dtls1_hm_fragment_new ( frag_len )'
p453
sg14
S'ExpressionStatement'
p454
sg21
S'27'
p455
ssg38
g89
sa(dp456
g2
(dp457
g4
g5
(g6
g7
Ntp458
Rp459
(dp460
g11
I0
sg12
g94
sg14
g95
sg16
(lp461
sg18
Nsbsg12
S'unsigned long frag_len = msg_hdr -> frag_len ;'
p462
sg14
S'IdentifierDeclStatement'
p463
sg21
S'8'
p464
ssg23
g24
sg25
g111
sg27
(dp465
g4
g5
(g6
g7
Ntp466
Rp467
(dp468
g11
I0
sg12
g116
sg14
g117
sg16
(lp469
sg18
Nsbsg12
S'i = s -> method -> ssl_read_bytes ( s , SSL3_RT_HANDSHAKE , frag -> fragment , frag_len , 0 )'
p470
sg14
S'ExpressionStatement'
p471
sg21
S'36'
p472
ssg38
g89
sa(dp473
g2
(dp474
g4
g5
(g6
g7
Ntp475
Rp476
(dp477
g11
I0
sg12
g94
sg14
g95
sg16
(lp478
sg18
Nsbsg12
S'unsigned long frag_len = msg_hdr -> frag_len ;'
p479
sg14
S'IdentifierDeclStatement'
p480
sg21
S'8'
p481
ssg23
g24
sg25
g259
sg27
(dp482
g4
g5
(g6
g7
Ntp483
Rp484
(dp485
g11
I0
sg12
g242
sg14
g243
sg16
(lp486
sg18
Nsbsg12
S'frag_len -= i'
p487
sg14
S'ExpressionStatement'
p488
sg21
S'23'
p489
ssg38
g89
sa(dp490
g2
(dp491
g4
g5
(g6
g7
Ntp492
Rp493
(dp494
g11
I0
sg12
g94
sg14
g95
sg16
(lp495
sg18
Nsbsg12
S'unsigned long frag_len = msg_hdr -> frag_len ;'
p496
sg14
S'IdentifierDeclStatement'
p497
sg21
S'8'
p498
ssg23
g24
sg25
g132
sg27
(dp499
g4
g5
(g6
g7
Ntp500
Rp501
(dp502
g11
I0
sg12
g137
sg14
g138
sg16
(lp503
sg18
Nsbsg12
S'i = s -> method -> ssl_read_bytes ( s , SSL3_RT_HANDSHAKE , devnull , frag_len > sizeof ( devnull ) ? sizeof ( devnull ) : frag_len , 0 )'
p504
sg14
S'ExpressionStatement'
p505
sg21
S'19'
p506
ssg38
g89
sa(dp507
g2
(dp508
g4
g5
(g6
g7
Ntp509
Rp510
(dp511
g11
I0
sg12
g94
sg14
g95
sg16
(lp512
sg18
Nsbsg12
S'unsigned long frag_len = msg_hdr -> frag_len ;'
p513
sg14
S'IdentifierDeclStatement'
p514
sg21
S'8'
p515
ssg23
g24
sg25
g169
sg27
(dp516
g4
g5
(g6
g7
Ntp517
Rp518
(dp519
g11
I0
sg12
g174
sg14
g175
sg16
(lp520
sg18
Nsbsg12
S'i <= 0 || ( unsigned long ) i != frag_len'
p521
sg14
S'Condition'
p522
sg21
S'38'
p523
ssg38
g89
sa(dp524
g2
(dp525
g4
g5
(g6
g7
Ntp526
Rp527
(dp528
g11
I0
sg12
g94
sg14
g95
sg16
(lp529
sg18
Nsbsg12
S'unsigned long frag_len = msg_hdr -> frag_len ;'
p530
sg14
S'IdentifierDeclStatement'
p531
sg21
S'8'
p532
ssg23
g24
sg25
g69
sg27
(dp533
g4
g5
(g6
g7
Ntp534
Rp535
(dp536
g11
I0
sg12
g74
sg14
g75
sg16
(lp537
sg18
Nsbsg12
S'( msg_hdr -> frag_off + frag_len ) > msg_hdr -> msg_len'
p538
sg14
S'Condition'
p539
sg21
S'10'
p540
ssg38
g89
sa(dp541
g2
(dp542
g4
g5
(g6
g7
Ntp543
Rp544
(dp545
g11
I0
sg12
g94
sg14
g95
sg16
(lp546
sg18
Nsbsg12
S'unsigned long frag_len = msg_hdr -> frag_len ;'
p547
sg14
S'IdentifierDeclStatement'
p548
sg21
S'8'
p549
ssg23
g24
sg25
g320
sg27
(dp550
g4
g5
(g6
g7
Ntp551
Rp552
(dp553
g11
I0
sg12
g325
sg14
g326
sg16
(lp554
sg18
Nsbsg12
S'frag_len'
p555
sg14
S'Condition'
p556
sg21
S'17'
p557
ssg38
g89
sa(dp558
g2
(dp559
g4
g5
(g6
g7
Ntp560
Rp561
(dp562
g11
I0
sg12
g174
sg14
g175
sg16
(lp563
sg18
Nsbsg12
S'i <= 0 || ( unsigned long ) i != frag_len'
p564
sg14
S'Condition'
p565
sg21
S'38'
p566
ssg23
S'0'
p567
sg25
S'5172'
p568
sg27
(dp569
g4
g5
(g6
g7
Ntp570
Rp571
(dp572
g11
I0
sg12
Vpq_64bit_free ( & seq64 )
p573
sg14
VExpressionStatement
p574
sg16
(lp575
sg18
Nsbsg12
S'pq_64bit_free ( & seq64 )'
p576
sg14
S'ExpressionStatement'
p577
sg21
S'46'
p578
ssg38
g169
sa(dp579
g2
(dp580
g4
g5
(g6
g7
Ntp581
Rp582
(dp583
g11
I0
sg12
g253
sg14
g254
sg16
(lp584
sg18
Nsbsg12
S'frag_len'
p585
sg14
S'Condition'
p586
sg21
S'33'
p587
ssg23
g567
sg25
g111
sg27
(dp588
g4
g5
(g6
g7
Ntp589
Rp590
(dp591
g11
I0
sg12
g116
sg14
g117
sg16
(lp592
sg18
Nsbsg12
S'i = s -> method -> ssl_read_bytes ( s , SSL3_RT_HANDSHAKE , frag -> fragment , frag_len , 0 )'
p593
sg14
S'ExpressionStatement'
p594
sg21
S'36'
p595
ssg38
g248
sa(dp596
g2
(dp597
g4
g5
(g6
g7
Ntp598
Rp599
(dp600
g11
I0
sg12
g253
sg14
g254
sg16
(lp601
sg18
Nsbsg12
S'frag_len'
p602
sg14
S'Condition'
p603
sg21
S'33'
p604
ssg23
g567
sg25
g169
sg27
(dp605
g4
g5
(g6
g7
Ntp606
Rp607
(dp608
g11
I0
sg12
g174
sg14
g175
sg16
(lp609
sg18
Nsbsg12
S'i <= 0 || ( unsigned long ) i != frag_len'
p610
sg14
S'Condition'
p611
sg21
S'38'
p612
ssg38
g248
sa(dp613
g2
(dp614
g4
g5
(g6
g7
Ntp615
Rp616
(dp617
g11
I0
sg12
g253
sg14
g254
sg16
(lp618
sg18
Nsbsg12
S'frag_len'
p619
sg14
S'Condition'
p620
sg21
S'33'
p621
ssg23
g567
sg25
g568
sg27
(dp622
g4
g5
(g6
g7
Ntp623
Rp624
(dp625
g11
I0
sg12
g573
sg14
g574
sg16
(lp626
sg18
Nsbsg12
S'pq_64bit_free ( & seq64 )'
p627
sg14
S'ExpressionStatement'
p628
sg21
S'46'
p629
ssg38
g248
sa(dp630
g2
(dp631
g4
g5
(g6
g7
Ntp632
Rp633
(dp634
g11
I0
sg12
g231
sg14
g232
sg16
(lp635
sg18
Nsbsg12
S'frag == NULL'
p636
sg14
S'Condition'
p637
sg21
S'28'
p638
ssg23
g567
sg25
g248
sg27
(dp639
g4
g5
(g6
g7
Ntp640
Rp641
(dp642
g11
I0
sg12
g253
sg14
g254
sg16
(lp643
sg18
Nsbsg12
S'frag_len'
p644
sg14
S'Condition'
p645
sg21
S'33'
p646
ssg38
g226
sa(dp647
g2
(dp648
g4
g5
(g6
g7
Ntp649
Rp650
(dp651
g11
I0
sg12
g231
sg14
g232
sg16
(lp652
sg18
Nsbsg12
S'frag == NULL'
p653
sg14
S'Condition'
p654
sg21
S'28'
p655
ssg23
g567
sg25
g26
sg27
(dp656
g4
g5
(g6
g7
Ntp657
Rp658
(dp659
g11
I0
sg12
g32
sg14
g33
sg16
(lp660
sg18
Nsbsg12
S'memcpy ( & ( frag -> msg_header ) , msg_hdr , sizeof ( * msg_hdr ) )'
p661
sg14
S'ExpressionStatement'
p662
sg21
S'31'
p663
ssg38
g226
sa(dp664
g2
(dp665
g4
g5
(g6
g7
Ntp666
Rp667
(dp668
g11
I0
sg12
g396
sg14
g397
sg16
(lp669
sg18
Nsbsg12
S'i <= 0'
p670
sg14
S'Condition'
p671
sg21
S'22'
p672
ssg23
g567
sg25
g259
sg27
(dp673
g4
g5
(g6
g7
Ntp674
Rp675
(dp676
g11
I0
sg12
g242
sg14
g243
sg16
(lp677
sg18
Nsbsg12
S'frag_len -= i'
p678
sg14
S'ExpressionStatement'
p679
sg21
S'23'
p680
ssg38
g391
sa(dp681
g2
(dp682
g4
g5
(g6
g7
Ntp683
Rp684
(dp685
g11
I0
sg12
g396
sg14
g397
sg16
(lp686
sg18
Nsbsg12
S'i <= 0'
p687
sg14
S'Condition'
p688
sg21
S'22'
p689
ssg23
g567
sg25
g320
sg27
(dp690
g4
g5
(g6
g7
Ntp691
Rp692
(dp693
g11
I0
sg12
g325
sg14
g326
sg16
(lp694
sg18
Nsbsg12
S'frag_len'
p695
sg14
S'Condition'
p696
sg21
S'17'
p697
ssg38
g391
sa(dp698
g2
(dp699
g4
g5
(g6
g7
Ntp700
Rp701
(dp702
g11
I0
sg12
g325
sg14
g326
sg16
(lp703
sg18
Nsbsg12
S'frag_len'
p704
sg14
S'Condition'
p705
sg21
S'17'
p706
ssg23
g567
sg25
g199
sg27
(dp707
g4
g5
(g6
g7
Ntp708
Rp709
(dp710
g11
I0
sg12
g185
sg14
g186
sg16
(lp711
sg18
Nsbsg12
S'frag = dtls1_hm_fragment_new ( frag_len )'
p712
sg14
S'ExpressionStatement'
p713
sg21
S'27'
p714
ssg38
g320
sa(dp715
g2
(dp716
g4
g5
(g6
g7
Ntp717
Rp718
(dp719
g11
I0
sg12
g325
sg14
g326
sg16
(lp720
sg18
Nsbsg12
S'frag_len'
p721
sg14
S'Condition'
p722
sg21
S'17'
p723
ssg23
g567
sg25
g226
sg27
(dp724
g4
g5
(g6
g7
Ntp725
Rp726
(dp727
g11
I0
sg12
g231
sg14
g232
sg16
(lp728
sg18
Nsbsg12
S'frag == NULL'
p729
sg14
S'Condition'
p730
sg21
S'28'
p731
ssg38
g320
sa(dp732
g2
(dp733
g4
g5
(g6
g7
Ntp734
Rp735
(dp736
g11
I0
sg12
g325
sg14
g326
sg16
(lp737
sg18
Nsbsg12
S'frag_len'
p738
sg14
S'Condition'
p739
sg21
S'17'
p740
ssg23
g567
sg25
g391
sg27
(dp741
g4
g5
(g6
g7
Ntp742
Rp743
(dp744
g11
I0
sg12
g396
sg14
g397
sg16
(lp745
sg18
Nsbsg12
S'i <= 0'
p746
sg14
S'Condition'
p747
sg21
S'22'
p748
ssg38
g320
sa(dp749
g2
(dp750
g4
g5
(g6
g7
Ntp751
Rp752
(dp753
g11
I0
sg12
g325
sg14
g326
sg16
(lp754
sg18
Nsbsg12
S'frag_len'
p755
sg14
S'Condition'
p756
sg21
S'17'
p757
ssg23
g567
sg25
g132
sg27
(dp758
g4
g5
(g6
g7
Ntp759
Rp760
(dp761
g11
I0
sg12
g137
sg14
g138
sg16
(lp762
sg18
Nsbsg12
S'i = s -> method -> ssl_read_bytes ( s , SSL3_RT_HANDSHAKE , devnull , frag_len > sizeof ( devnull ) ? sizeof ( devnull ) : frag_len , 0 )'
p763
sg14
S'ExpressionStatement'
p764
sg21
S'19'
p765
ssg38
g320
sa(dp766
g2
(dp767
g4
g5
(g6
g7
Ntp768
Rp769
(dp770
g11
I0
sg12
g54
sg14
g55
sg16
(lp771
sg18
Nsbsg12
S'msg_hdr -> seq <= s -> d1 -> handshake_read_seq'
p772
sg14
S'Condition'
p773
sg21
S'13'
p774
ssg23
g567
sg25
g199
sg27
(dp775
g4
g5
(g6
g7
Ntp776
Rp777
(dp778
g11
I0
sg12
g185
sg14
g186
sg16
(lp779
sg18
Nsbsg12
S'frag = dtls1_hm_fragment_new ( frag_len )'
p780
sg14
S'ExpressionStatement'
p781
sg21
S'27'
p782
ssg38
g49
sa(dp783
g2
(dp784
g4
g5
(g6
g7
Ntp785
Rp786
(dp787
g11
I0
sg12
g54
sg14
g55
sg16
(lp788
sg18
Nsbsg12
S'msg_hdr -> seq <= s -> d1 -> handshake_read_seq'
p789
sg14
S'Condition'
p790
sg21
S'13'
p791
ssg23
g567
sg25
g226
sg27
(dp792
g4
g5
(g6
g7
Ntp793
Rp794
(dp795
g11
I0
sg12
g231
sg14
g232
sg16
(lp796
sg18
Nsbsg12
S'frag == NULL'
p797
sg14
S'Condition'
p798
sg21
S'28'
p799
ssg38
g49
sa(dp800
g2
(dp801
g4
g5
(g6
g7
Ntp802
Rp803
(dp804
g11
I0
sg12
g54
sg14
g55
sg16
(lp805
sg18
Nsbsg12
S'msg_hdr -> seq <= s -> d1 -> handshake_read_seq'
p806
sg14
S'Condition'
p807
sg21
S'13'
p808
ssg23
g567
sg25
g421
sg27
(dp809
g4
g5
(g6
g7
Ntp810
Rp811
(dp812
g11
I0
sg12
g407
sg14
g408
sg16
(lp813
sg18
Nsbsg12
S'unsigned char devnull [ 256 ] ;'
p814
sg14
S'IdentifierDeclStatement'
p815
sg21
S'15'
p816
ssg38
g49
sa(dp817
g2
(dp818
g4
g5
(g6
g7
Ntp819
Rp820
(dp821
g11
I0
sg12
g54
sg14
g55
sg16
(lp822
sg18
Nsbsg12
S'msg_hdr -> seq <= s -> d1 -> handshake_read_seq'
p823
sg14
S'Condition'
p824
sg21
S'13'
p825
ssg23
g567
sg25
g320
sg27
(dp826
g4
g5
(g6
g7
Ntp827
Rp828
(dp829
g11
I0
sg12
g325
sg14
g326
sg16
(lp830
sg18
Nsbsg12
S'frag_len'
p831
sg14
S'Condition'
p832
sg21
S'17'
p833
ssg38
g49
sa(dp834
g2
(dp835
g4
g5
(g6
g7
Ntp836
Rp837
(dp838
g11
I0
sg12
g74
sg14
g75
sg16
(lp839
sg18
Nsbsg12
S'( msg_hdr -> frag_off + frag_len ) > msg_hdr -> msg_len'
p840
sg14
S'Condition'
p841
sg21
S'10'
p842
ssg23
g567
sg25
g49
sg27
(dp843
g4
g5
(g6
g7
Ntp844
Rp845
(dp846
g11
I0
sg12
g54
sg14
g55
sg16
(lp847
sg18
Nsbsg12
S'msg_hdr -> seq <= s -> d1 -> handshake_read_seq'
p848
sg14
S'Condition'
p849
sg21
S'13'
p850
ssg38
g69
sa(dp851
g2
(dp852
g4
g5
(g6
g7
Ntp853
Rp854
(dp855
g11
I0
sg12
Vdtls1_process_out_of_seq_message
p856
sg14
VFunction
p857
sg16
(lp858
sg18
Nsbsg12
S'dtls1_process_out_of_seq_message'
p859
sg14
S'Function'
p860
sg21
S'1'
p861
ssg23
g567
sg25
S'5105'
p862
sg27
(dp863
g4
g5
(g6
g7
Ntp864
Rp865
(dp866
g11
I0
sg12
Vint * ok
p867
sg14
VParameter
p868
sg16
(lp869
sg18
Nsbsg12
S'int * ok'
p870
sg14
S'Parameter'
p871
sg21
S'2'
p872
ssg38
S'5102'
p873
sa(dp874
g2
(dp875
g4
g5
(g6
g7
Ntp876
Rp877
(dp878
g11
I0
sg12
g856
sg14
g857
sg16
(lp879
sg18
Nsbsg12
S'dtls1_process_out_of_seq_message'
p880
sg14
S'Function'
p881
sg21
S'1'
p882
ssg23
g567
sg25
g69
sg27
(dp883
g4
g5
(g6
g7
Ntp884
Rp885
(dp886
g11
I0
sg12
g74
sg14
g75
sg16
(lp887
sg18
Nsbsg12
S'( msg_hdr -> frag_off + frag_len ) > msg_hdr -> msg_len'
p888
sg14
S'Condition'
p889
sg21
S'10'
p890
ssg38
g873
sa(dp891
g2
(dp892
g4
g5
(g6
g7
Ntp893
Rp894
(dp895
g11
I0
sg12
g856
sg14
g857
sg16
(lp896
sg18
Nsbsg12
S'dtls1_process_out_of_seq_message'
p897
sg14
S'Function'
p898
sg21
S'1'
p899
ssg23
g567
sg25
g89
sg27
(dp900
g4
g5
(g6
g7
Ntp901
Rp902
(dp903
g11
I0
sg12
g94
sg14
g95
sg16
(lp904
sg18
Nsbsg12
S'unsigned long frag_len = msg_hdr -> frag_len ;'
p905
sg14
S'IdentifierDeclStatement'
p906
sg21
S'8'
p907
ssg38
g873
sa(dp908
g2
(dp909
g4
g5
(g6
g7
Ntp910
Rp911
(dp912
g11
I0
sg12
g856
sg14
g857
sg16
(lp913
sg18
Nsbsg12
S'dtls1_process_out_of_seq_message'
p914
sg14
S'Function'
p915
sg21
S'1'
p916
ssg23
g567
sg25
S'5374'
p917
sg27
(dp918
g4
g5
(g6
g7
Ntp919
Rp920
(dp921
g11
I0
sg12
VPQ_64BIT seq64 ;
p922
sg14
VIdentifierDeclStatement
p923
sg16
(lp924
sg18
Nsbsg12
S'PQ_64BIT seq64 ;'
p925
sg14
S'IdentifierDeclStatement'
p926
sg21
S'7'
p927
ssg38
g873
sa(dp928
g2
(dp929
g4
g5
(g6
g7
Ntp930
Rp931
(dp932
g11
I0
sg12
g856
sg14
g857
sg16
(lp933
sg18
Nsbsg12
S'dtls1_process_out_of_seq_message'
p934
sg14
S'Function'
p935
sg21
S'1'
p936
ssg23
g567
sg25
g39
sg27
(dp937
g4
g5
(g6
g7
Ntp938
Rp939
(dp940
g11
I0
sg12
g13
sg14
g15
sg16
(lp941
sg18
Nsbsg12
S'struct hm_header_st * msg_hdr'
p942
sg14
S'Parameter'
p943
sg21
S'2'
p944
ssg38
g873
sa(dp945
g2
(dp946
g4
g5
(g6
g7
Ntp947
Rp948
(dp949
g11
I0
sg12
g856
sg14
g857
sg16
(lp950
sg18
Nsbsg12
S'dtls1_process_out_of_seq_message'
p951
sg14
S'Function'
p952
sg21
S'1'
p953
ssg23
g567
sg25
g122
sg27
(dp954
g4
g5
(g6
g7
Ntp955
Rp956
(dp957
g11
I0
sg12
g105
sg14
g106
sg16
(lp958
sg18
Nsbsg12
S'SSL * s'
p959
sg14
S'Parameter'
p960
sg21
S'2'
p961
ssg38
g873
sa(dp962
g2
(dp963
g4
g5
(g6
g7
Ntp964
Rp965
(dp966
g11
I0
sg12
g922
sg14
g923
sg16
(lp967
sg18
Nsbsg12
S'PQ_64BIT seq64 ;'
p968
sg14
S'IdentifierDeclStatement'
p969
sg21
S'7'
p970
ssg23
S'3'
p971
sg25
g568
sg27
(dp972
g4
g5
(g6
g7
Ntp973
Rp974
(dp975
g11
I0
sg12
g573
sg14
g574
sg16
(lp976
sg18
Nsbsg12
S'pq_64bit_free ( & seq64 )'
p977
sg14
S'ExpressionStatement'
p978
sg21
S'46'
p979
ssg38
g917
sa(dp980
g2
(dp981
g4
g5
(g6
g7
Ntp982
Rp983
(dp984
g11
I0
sg12
g32
sg14
g33
sg16
(lp985
sg18
Nsbsg12
S'memcpy ( & ( frag -> msg_header ) , msg_hdr , sizeof ( * msg_hdr ) )'
p986
sg14
S'ExpressionStatement'
p987
sg21
S'31'
p988
ssg23
g971
sg25
g111
sg27
(dp989
g4
g5
(g6
g7
Ntp990
Rp991
(dp992
g11
I0
sg12
g116
sg14
g117
sg16
(lp993
sg18
Nsbsg12
S'i = s -> method -> ssl_read_bytes ( s , SSL3_RT_HANDSHAKE , frag -> fragment , frag_len , 0 )'
p994
sg14
S'ExpressionStatement'
p995
sg21
S'36'
p996
ssg38
g26
sa.